

Microchip MPLAB XC8 Assembler V2.40 build 20220703182018 
                                                                                               Sun Mar 10 18:04:36 2024

Microchip MPLAB XC8 C Compiler v2.40 (Free license) build 20220703182018 Og1 
     1                           	processor	16F18856
     2                           	pagewidth 120
     3                           	opt	flic
     4                           	psect	cinit,global,class=CODE,merge=1,delta=2
     5                           	psect	bssBANK0,global,class=BANK0,space=1,delta=1,noexec
     6                           	psect	cstackCOMMON,global,class=COMMON,space=1,delta=1,noexec
     7                           	psect	cstackBANK0,global,class=BANK0,space=1,delta=1,noexec
     8                           	psect	maintext,global,class=CODE,merge=1,split=1,delta=2
     9                           	psect	text1,local,class=CODE,merge=1,delta=2
    10                           	psect	text2,local,class=CODE,merge=1,delta=2
    11                           	psect	text3,local,class=CODE,merge=1,delta=2
    12                           	psect	text4,local,class=CODE,merge=1,delta=2
    13                           	psect	text5,local,class=CODE,merge=1,delta=2,group=1
    14                           	psect	text6,local,class=CODE,merge=1,delta=2
    15                           	psect	text7,local,class=CODE,merge=1,delta=2
    16                           	psect	text8,local,class=CODE,merge=1,delta=2
    17                           	psect	text9,local,class=CODE,merge=1,delta=2
    18                           	psect	text10,local,class=CODE,merge=1,delta=2
    19                           	psect	text11,local,class=CODE,merge=1,delta=2
    20                           	psect	text12,local,class=CODE,merge=1,delta=2
    21                           	psect	text13,local,class=CODE,merge=1,delta=2
    22                           	psect	text14,local,class=CODE,merge=1,delta=2,group=1
    23                           	psect	intentry,global,class=CODE,delta=2
    24                           	psect	text16,local,class=CODE,merge=1,delta=2
    25                           	psect	config,global,abs,ovrld,class=CONFIG,space=4,delta=2,noexec
    26                           	dabs	1,0x7E,2
    27     0000                     
    28                           ; Version 2.35
    29                           ; Generated 13/04/2021 GMT
    30                           ; 
    31                           ; Copyright © 2021, Microchip Technology Inc. and its subsidiaries ("Microchip")
    32                           ; All rights reserved.
    33                           ; 
    34                           ; This software is developed by Microchip Technology Inc. and its subsidiaries ("Microch
      +                          ip").
    35                           ; 
    36                           ; Redistribution and use in source and binary forms, with or without modification, are
    37                           ; permitted provided that the following conditions are met:
    38                           ; 
    39                           ;     1. Redistributions of source code must retain the above copyright notice, this lis
      +                          t of
    40                           ;        conditions and the following disclaimer.
    41                           ; 
    42                           ;     2. Redistributions in binary form must reproduce the above copyright notice, this 
      +                          list
    43                           ;        of conditions and the following disclaimer in the documentation and/or other
    44                           ;        materials provided with the distribution. Publication is not required when
    45                           ;        this file is used in an embedded application.
    46                           ; 
    47                           ;     3. Microchip's name may not be used to endorse or promote products derived from th
      +                          is
    48                           ;        software without specific prior written permission.
    49                           ; 
    50                           ; THIS SOFTWARE IS PROVIDED BY MICROCHIP "AS IS" AND ANY EXPRESS OR IMPLIED WARRANTIES,
    51                           ; INCLUDING, BUT NOT LIMITED TO, THE IMPLIED WARRANTIES OF MERCHANTABILITY AND FITNESS F
      +                          OR
    52                           ; PURPOSE ARE DISCLAIMED.  IN NO EVENT SHALL MICROCHIP BE LIABLE FOR ANY DIRECT, INDIREC
      +                          T,
    53                           ; INCIDENTAL, SPECIAL, EXEMPLARY, OR CONSEQUENTIAL DAMAGES (INCLUDING BUT NOT LIMITED TO
    54                           ; PROCUREMENT OF SUBSTITUTE GOODS OR SERVICES; LOSS OF USE, DATA OR PROFITS; OR BUSINESS
    55                           ; INTERRUPTION) HOWSOEVER CAUSED AND ON ANY THEORY OF LIABILITY, WHETHER IN CONTRACT, ST
      +                          RICT
    56                           ; LIABILITY, OR TORT (INCLUDING NEGLIGENCE OR OTHERWISE) ARISING IN ANY WAY OUT OF THE U
      +                          SE OF
    57                           ; THIS SOFTWARE, EVEN IF ADVISED OF THE POSSIBILITY OF SUCH DAMAGE.
    58                           ; 
    59                           ; 
    60                           ; Code-generator required, PIC16F18856 Definitions
    61                           ; 
    62                           ; SFR Addresses
    63     0000                     	;# 
    64     0001                     	;# 
    65     0002                     	;# 
    66     0003                     	;# 
    67     0004                     	;# 
    68     0005                     	;# 
    69     0006                     	;# 
    70     0007                     	;# 
    71     0008                     	;# 
    72     0009                     	;# 
    73     000A                     	;# 
    74     000B                     	;# 
    75     000C                     	;# 
    76     000D                     	;# 
    77     000E                     	;# 
    78     0010                     	;# 
    79     0011                     	;# 
    80     0012                     	;# 
    81     0013                     	;# 
    82     0016                     	;# 
    83     0017                     	;# 
    84     0018                     	;# 
    85     001C                     	;# 
    86     001C                     	;# 
    87     001D                     	;# 
    88     001D                     	;# 
    89     001E                     	;# 
    90     001F                     	;# 
    91     008C                     	;# 
    92     008C                     	;# 
    93     008D                     	;# 
    94     008E                     	;# 
    95     008E                     	;# 
    96     008F                     	;# 
    97     0090                     	;# 
    98     0090                     	;# 
    99     0091                     	;# 
   100     0093                     	;# 
   101     0094                     	;# 
   102     0095                     	;# 
   103     0096                     	;# 
   104     0097                     	;# 
   105     0098                     	;# 
   106     0099                     	;# 
   107     009A                     	;# 
   108     009B                     	;# 
   109     009C                     	;# 
   110     009D                     	;# 
   111     009E                     	;# 
   112     010C                     	;# 
   113     010D                     	;# 
   114     010E                     	;# 
   115     010E                     	;# 
   116     010F                     	;# 
   117     0110                     	;# 
   118     0110                     	;# 
   119     0111                     	;# 
   120     0112                     	;# 
   121     0112                     	;# 
   122     0113                     	;# 
   123     0114                     	;# 
   124     0114                     	;# 
   125     0115                     	;# 
   126     0116                     	;# 
   127     0116                     	;# 
   128     0117                     	;# 
   129     0119                     	;# 
   130     0119                     	;# 
   131     0119                     	;# 
   132     011A                     	;# 
   133     011A                     	;# 
   134     011A                     	;# 
   135     011B                     	;# 
   136     011B                     	;# 
   137     011B                     	;# 
   138     011B                     	;# 
   139     011B                     	;# 
   140     011C                     	;# 
   141     011C                     	;# 
   142     011C                     	;# 
   143     011D                     	;# 
   144     011D                     	;# 
   145     011D                     	;# 
   146     011E                     	;# 
   147     011E                     	;# 
   148     011E                     	;# 
   149     011F                     	;# 
   150     011F                     	;# 
   151     011F                     	;# 
   152     011F                     	;# 
   153     011F                     	;# 
   154     018C                     	;# 
   155     018D                     	;# 
   156     018E                     	;# 
   157     018F                     	;# 
   158     0190                     	;# 
   159     0191                     	;# 
   160     0192                     	;# 
   161     0196                     	;# 
   162     0197                     	;# 
   163     0198                     	;# 
   164     0199                     	;# 
   165     019A                     	;# 
   166     019B                     	;# 
   167     019C                     	;# 
   168     020C                     	;# 
   169     020C                     	;# 
   170     020D                     	;# 
   171     020E                     	;# 
   172     020F                     	;# 
   173     020F                     	;# 
   174     0210                     	;# 
   175     0210                     	;# 
   176     0211                     	;# 
   177     0211                     	;# 
   178     0212                     	;# 
   179     0212                     	;# 
   180     0213                     	;# 
   181     0214                     	;# 
   182     0215                     	;# 
   183     0215                     	;# 
   184     0216                     	;# 
   185     0216                     	;# 
   186     0217                     	;# 
   187     0217                     	;# 
   188     0218                     	;# 
   189     0218                     	;# 
   190     0219                     	;# 
   191     021A                     	;# 
   192     021B                     	;# 
   193     021B                     	;# 
   194     021C                     	;# 
   195     021C                     	;# 
   196     021D                     	;# 
   197     021D                     	;# 
   198     021E                     	;# 
   199     021F                     	;# 
   200     028C                     	;# 
   201     028C                     	;# 
   202     028D                     	;# 
   203     028D                     	;# 
   204     028E                     	;# 
   205     028F                     	;# 
   206     0290                     	;# 
   207     0290                     	;# 
   208     0291                     	;# 
   209     0292                     	;# 
   210     0292                     	;# 
   211     0293                     	;# 
   212     0293                     	;# 
   213     0294                     	;# 
   214     0295                     	;# 
   215     0296                     	;# 
   216     0296                     	;# 
   217     0297                     	;# 
   218     0298                     	;# 
   219     0298                     	;# 
   220     0299                     	;# 
   221     0299                     	;# 
   222     029A                     	;# 
   223     029B                     	;# 
   224     029C                     	;# 
   225     029C                     	;# 
   226     029D                     	;# 
   227     030C                     	;# 
   228     030C                     	;# 
   229     030D                     	;# 
   230     030E                     	;# 
   231     030F                     	;# 
   232     0310                     	;# 
   233     0310                     	;# 
   234     0311                     	;# 
   235     0312                     	;# 
   236     0313                     	;# 
   237     0314                     	;# 
   238     0314                     	;# 
   239     0315                     	;# 
   240     0316                     	;# 
   241     0317                     	;# 
   242     0318                     	;# 
   243     0318                     	;# 
   244     0319                     	;# 
   245     031A                     	;# 
   246     031B                     	;# 
   247     031C                     	;# 
   248     031C                     	;# 
   249     031D                     	;# 
   250     031E                     	;# 
   251     031F                     	;# 
   252     038C                     	;# 
   253     038C                     	;# 
   254     038D                     	;# 
   255     038E                     	;# 
   256     0390                     	;# 
   257     0390                     	;# 
   258     0391                     	;# 
   259     0392                     	;# 
   260     040C                     	;# 
   261     040D                     	;# 
   262     040E                     	;# 
   263     040F                     	;# 
   264     0410                     	;# 
   265     0411                     	;# 
   266     0416                     	;# 
   267     0416                     	;# 
   268     0417                     	;# 
   269     0418                     	;# 
   270     0418                     	;# 
   271     0419                     	;# 
   272     041A                     	;# 
   273     041A                     	;# 
   274     041B                     	;# 
   275     041C                     	;# 
   276     041C                     	;# 
   277     041D                     	;# 
   278     041E                     	;# 
   279     041F                     	;# 
   280     048C                     	;# 
   281     048C                     	;# 
   282     048D                     	;# 
   283     048E                     	;# 
   284     048F                     	;# 
   285     048F                     	;# 
   286     0490                     	;# 
   287     0491                     	;# 
   288     0492                     	;# 
   289     0492                     	;# 
   290     0493                     	;# 
   291     0494                     	;# 
   292     0495                     	;# 
   293     0495                     	;# 
   294     0496                     	;# 
   295     0497                     	;# 
   296     0498                     	;# 
   297     0499                     	;# 
   298     049A                     	;# 
   299     049B                     	;# 
   300     049C                     	;# 
   301     049D                     	;# 
   302     050C                     	;# 
   303     050C                     	;# 
   304     050D                     	;# 
   305     050E                     	;# 
   306     050F                     	;# 
   307     050F                     	;# 
   308     0510                     	;# 
   309     0511                     	;# 
   310     0512                     	;# 
   311     0512                     	;# 
   312     0513                     	;# 
   313     0514                     	;# 
   314     0515                     	;# 
   315     0515                     	;# 
   316     0516                     	;# 
   317     0517                     	;# 
   318     0518                     	;# 
   319     0519                     	;# 
   320     051A                     	;# 
   321     051B                     	;# 
   322     051C                     	;# 
   323     051D                     	;# 
   324     058C                     	;# 
   325     058C                     	;# 
   326     058D                     	;# 
   327     058E                     	;# 
   328     058F                     	;# 
   329     058F                     	;# 
   330     0590                     	;# 
   331     0591                     	;# 
   332     0592                     	;# 
   333     0593                     	;# 
   334     060C                     	;# 
   335     060D                     	;# 
   336     060E                     	;# 
   337     060F                     	;# 
   338     0610                     	;# 
   339     0611                     	;# 
   340     0612                     	;# 
   341     0613                     	;# 
   342     0614                     	;# 
   343     0616                     	;# 
   344     0617                     	;# 
   345     0618                     	;# 
   346     0619                     	;# 
   347     061A                     	;# 
   348     061B                     	;# 
   349     061C                     	;# 
   350     061D                     	;# 
   351     061E                     	;# 
   352     068C                     	;# 
   353     068D                     	;# 
   354     068E                     	;# 
   355     068F                     	;# 
   356     0690                     	;# 
   357     0691                     	;# 
   358     0692                     	;# 
   359     0693                     	;# 
   360     0694                     	;# 
   361     070C                     	;# 
   362     070D                     	;# 
   363     070E                     	;# 
   364     070F                     	;# 
   365     0710                     	;# 
   366     0711                     	;# 
   367     0712                     	;# 
   368     0713                     	;# 
   369     0714                     	;# 
   370     0716                     	;# 
   371     0717                     	;# 
   372     0718                     	;# 
   373     0719                     	;# 
   374     071A                     	;# 
   375     071B                     	;# 
   376     071C                     	;# 
   377     071D                     	;# 
   378     071E                     	;# 
   379     0796                     	;# 
   380     0797                     	;# 
   381     0798                     	;# 
   382     0799                     	;# 
   383     079A                     	;# 
   384     079B                     	;# 
   385     080C                     	;# 
   386     080D                     	;# 
   387     080E                     	;# 
   388     080F                     	;# 
   389     0810                     	;# 
   390     0811                     	;# 
   391     0812                     	;# 
   392     0813                     	;# 
   393     0814                     	;# 
   394     081A                     	;# 
   395     081B                     	;# 
   396     081C                     	;# 
   397     081D                     	;# 
   398     081E                     	;# 
   399     081F                     	;# 
   400     088C                     	;# 
   401     088D                     	;# 
   402     088E                     	;# 
   403     088F                     	;# 
   404     0890                     	;# 
   405     0891                     	;# 
   406     0892                     	;# 
   407     0893                     	;# 
   408     0895                     	;# 
   409     0896                     	;# 
   410     0897                     	;# 
   411     0898                     	;# 
   412     0899                     	;# 
   413     089A                     	;# 
   414     089B                     	;# 
   415     090C                     	;# 
   416     090E                     	;# 
   417     090F                     	;# 
   418     091F                     	;# 
   419     098F                     	;# 
   420     098F                     	;# 
   421     0990                     	;# 
   422     0991                     	;# 
   423     0992                     	;# 
   424     0993                     	;# 
   425     0994                     	;# 
   426     0995                     	;# 
   427     0996                     	;# 
   428     0997                     	;# 
   429     0E0F                     	;# 
   430     0E10                     	;# 
   431     0E11                     	;# 
   432     0E12                     	;# 
   433     0E13                     	;# 
   434     0E14                     	;# 
   435     0E15                     	;# 
   436     0E16                     	;# 
   437     0E17                     	;# 
   438     0E18                     	;# 
   439     0E19                     	;# 
   440     0E1A                     	;# 
   441     0E1B                     	;# 
   442     0E1C                     	;# 
   443     0E1D                     	;# 
   444     0E1E                     	;# 
   445     0E1F                     	;# 
   446     0E20                     	;# 
   447     0E21                     	;# 
   448     0E22                     	;# 
   449     0E23                     	;# 
   450     0E24                     	;# 
   451     0E25                     	;# 
   452     0E26                     	;# 
   453     0E27                     	;# 
   454     0E28                     	;# 
   455     0E29                     	;# 
   456     0E2A                     	;# 
   457     0E2B                     	;# 
   458     0E2C                     	;# 
   459     0E2D                     	;# 
   460     0E2E                     	;# 
   461     0E2F                     	;# 
   462     0E30                     	;# 
   463     0E31                     	;# 
   464     0E32                     	;# 
   465     0E33                     	;# 
   466     0E34                     	;# 
   467     0E35                     	;# 
   468     0E36                     	;# 
   469     0E37                     	;# 
   470     0E8F                     	;# 
   471     0E90                     	;# 
   472     0E91                     	;# 
   473     0E92                     	;# 
   474     0E93                     	;# 
   475     0E94                     	;# 
   476     0E95                     	;# 
   477     0E96                     	;# 
   478     0E97                     	;# 
   479     0E9C                     	;# 
   480     0E9D                     	;# 
   481     0E9E                     	;# 
   482     0EA1                     	;# 
   483     0EA2                     	;# 
   484     0EA3                     	;# 
   485     0EA4                     	;# 
   486     0EA5                     	;# 
   487     0EA9                     	;# 
   488     0EAA                     	;# 
   489     0EAB                     	;# 
   490     0EAC                     	;# 
   491     0EB1                     	;# 
   492     0EB2                     	;# 
   493     0EB3                     	;# 
   494     0EB8                     	;# 
   495     0EB9                     	;# 
   496     0EBA                     	;# 
   497     0EBB                     	;# 
   498     0EBC                     	;# 
   499     0EBD                     	;# 
   500     0EBE                     	;# 
   501     0EC3                     	;# 
   502     0EC5                     	;# 
   503     0EC6                     	;# 
   504     0EC7                     	;# 
   505     0EC8                     	;# 
   506     0EC9                     	;# 
   507     0ECA                     	;# 
   508     0ECB                     	;# 
   509     0ECC                     	;# 
   510     0F10                     	;# 
   511     0F11                     	;# 
   512     0F12                     	;# 
   513     0F13                     	;# 
   514     0F14                     	;# 
   515     0F15                     	;# 
   516     0F16                     	;# 
   517     0F17                     	;# 
   518     0F18                     	;# 
   519     0F19                     	;# 
   520     0F1A                     	;# 
   521     0F1B                     	;# 
   522     0F1C                     	;# 
   523     0F1D                     	;# 
   524     0F1E                     	;# 
   525     0F1F                     	;# 
   526     0F20                     	;# 
   527     0F21                     	;# 
   528     0F22                     	;# 
   529     0F23                     	;# 
   530     0F24                     	;# 
   531     0F25                     	;# 
   532     0F26                     	;# 
   533     0F27                     	;# 
   534     0F38                     	;# 
   535     0F39                     	;# 
   536     0F3A                     	;# 
   537     0F3B                     	;# 
   538     0F3C                     	;# 
   539     0F3D                     	;# 
   540     0F3E                     	;# 
   541     0F3F                     	;# 
   542     0F40                     	;# 
   543     0F41                     	;# 
   544     0F43                     	;# 
   545     0F44                     	;# 
   546     0F45                     	;# 
   547     0F46                     	;# 
   548     0F47                     	;# 
   549     0F48                     	;# 
   550     0F49                     	;# 
   551     0F4A                     	;# 
   552     0F4B                     	;# 
   553     0F4C                     	;# 
   554     0F4E                     	;# 
   555     0F4F                     	;# 
   556     0F50                     	;# 
   557     0F51                     	;# 
   558     0F52                     	;# 
   559     0F53                     	;# 
   560     0F54                     	;# 
   561     0F55                     	;# 
   562     0F56                     	;# 
   563     0F57                     	;# 
   564     0F65                     	;# 
   565     0F68                     	;# 
   566     0F69                     	;# 
   567     0F6A                     	;# 
   568     0F6B                     	;# 
   569     0FE4                     	;# 
   570     0FE5                     	;# 
   571     0FE6                     	;# 
   572     0FE7                     	;# 
   573     0FE8                     	;# 
   574     0FE9                     	;# 
   575     0FEA                     	;# 
   576     0FEB                     	;# 
   577     0FED                     	;# 
   578     0FEE                     	;# 
   579     0FEF                     	;# 
   580     0000                     	;# 
   581     0001                     	;# 
   582     0002                     	;# 
   583     0003                     	;# 
   584     0004                     	;# 
   585     0005                     	;# 
   586     0006                     	;# 
   587     0007                     	;# 
   588     0008                     	;# 
   589     0009                     	;# 
   590     000A                     	;# 
   591     000B                     	;# 
   592     000C                     	;# 
   593     000D                     	;# 
   594     000E                     	;# 
   595     0010                     	;# 
   596     0011                     	;# 
   597     0012                     	;# 
   598     0013                     	;# 
   599     0016                     	;# 
   600     0017                     	;# 
   601     0018                     	;# 
   602     001C                     	;# 
   603     001C                     	;# 
   604     001D                     	;# 
   605     001D                     	;# 
   606     001E                     	;# 
   607     001F                     	;# 
   608     008C                     	;# 
   609     008C                     	;# 
   610     008D                     	;# 
   611     008E                     	;# 
   612     008E                     	;# 
   613     008F                     	;# 
   614     0090                     	;# 
   615     0090                     	;# 
   616     0091                     	;# 
   617     0093                     	;# 
   618     0094                     	;# 
   619     0095                     	;# 
   620     0096                     	;# 
   621     0097                     	;# 
   622     0098                     	;# 
   623     0099                     	;# 
   624     009A                     	;# 
   625     009B                     	;# 
   626     009C                     	;# 
   627     009D                     	;# 
   628     009E                     	;# 
   629     010C                     	;# 
   630     010D                     	;# 
   631     010E                     	;# 
   632     010E                     	;# 
   633     010F                     	;# 
   634     0110                     	;# 
   635     0110                     	;# 
   636     0111                     	;# 
   637     0112                     	;# 
   638     0112                     	;# 
   639     0113                     	;# 
   640     0114                     	;# 
   641     0114                     	;# 
   642     0115                     	;# 
   643     0116                     	;# 
   644     0116                     	;# 
   645     0117                     	;# 
   646     0119                     	;# 
   647     0119                     	;# 
   648     0119                     	;# 
   649     011A                     	;# 
   650     011A                     	;# 
   651     011A                     	;# 
   652     011B                     	;# 
   653     011B                     	;# 
   654     011B                     	;# 
   655     011B                     	;# 
   656     011B                     	;# 
   657     011C                     	;# 
   658     011C                     	;# 
   659     011C                     	;# 
   660     011D                     	;# 
   661     011D                     	;# 
   662     011D                     	;# 
   663     011E                     	;# 
   664     011E                     	;# 
   665     011E                     	;# 
   666     011F                     	;# 
   667     011F                     	;# 
   668     011F                     	;# 
   669     011F                     	;# 
   670     011F                     	;# 
   671     018C                     	;# 
   672     018D                     	;# 
   673     018E                     	;# 
   674     018F                     	;# 
   675     0190                     	;# 
   676     0191                     	;# 
   677     0192                     	;# 
   678     0196                     	;# 
   679     0197                     	;# 
   680     0198                     	;# 
   681     0199                     	;# 
   682     019A                     	;# 
   683     019B                     	;# 
   684     019C                     	;# 
   685     020C                     	;# 
   686     020C                     	;# 
   687     020D                     	;# 
   688     020E                     	;# 
   689     020F                     	;# 
   690     020F                     	;# 
   691     0210                     	;# 
   692     0210                     	;# 
   693     0211                     	;# 
   694     0211                     	;# 
   695     0212                     	;# 
   696     0212                     	;# 
   697     0213                     	;# 
   698     0214                     	;# 
   699     0215                     	;# 
   700     0215                     	;# 
   701     0216                     	;# 
   702     0216                     	;# 
   703     0217                     	;# 
   704     0217                     	;# 
   705     0218                     	;# 
   706     0218                     	;# 
   707     0219                     	;# 
   708     021A                     	;# 
   709     021B                     	;# 
   710     021B                     	;# 
   711     021C                     	;# 
   712     021C                     	;# 
   713     021D                     	;# 
   714     021D                     	;# 
   715     021E                     	;# 
   716     021F                     	;# 
   717     028C                     	;# 
   718     028C                     	;# 
   719     028D                     	;# 
   720     028D                     	;# 
   721     028E                     	;# 
   722     028F                     	;# 
   723     0290                     	;# 
   724     0290                     	;# 
   725     0291                     	;# 
   726     0292                     	;# 
   727     0292                     	;# 
   728     0293                     	;# 
   729     0293                     	;# 
   730     0294                     	;# 
   731     0295                     	;# 
   732     0296                     	;# 
   733     0296                     	;# 
   734     0297                     	;# 
   735     0298                     	;# 
   736     0298                     	;# 
   737     0299                     	;# 
   738     0299                     	;# 
   739     029A                     	;# 
   740     029B                     	;# 
   741     029C                     	;# 
   742     029C                     	;# 
   743     029D                     	;# 
   744     030C                     	;# 
   745     030C                     	;# 
   746     030D                     	;# 
   747     030E                     	;# 
   748     030F                     	;# 
   749     0310                     	;# 
   750     0310                     	;# 
   751     0311                     	;# 
   752     0312                     	;# 
   753     0313                     	;# 
   754     0314                     	;# 
   755     0314                     	;# 
   756     0315                     	;# 
   757     0316                     	;# 
   758     0317                     	;# 
   759     0318                     	;# 
   760     0318                     	;# 
   761     0319                     	;# 
   762     031A                     	;# 
   763     031B                     	;# 
   764     031C                     	;# 
   765     031C                     	;# 
   766     031D                     	;# 
   767     031E                     	;# 
   768     031F                     	;# 
   769     038C                     	;# 
   770     038C                     	;# 
   771     038D                     	;# 
   772     038E                     	;# 
   773     0390                     	;# 
   774     0390                     	;# 
   775     0391                     	;# 
   776     0392                     	;# 
   777     040C                     	;# 
   778     040D                     	;# 
   779     040E                     	;# 
   780     040F                     	;# 
   781     0410                     	;# 
   782     0411                     	;# 
   783     0416                     	;# 
   784     0416                     	;# 
   785     0417                     	;# 
   786     0418                     	;# 
   787     0418                     	;# 
   788     0419                     	;# 
   789     041A                     	;# 
   790     041A                     	;# 
   791     041B                     	;# 
   792     041C                     	;# 
   793     041C                     	;# 
   794     041D                     	;# 
   795     041E                     	;# 
   796     041F                     	;# 
   797     048C                     	;# 
   798     048C                     	;# 
   799     048D                     	;# 
   800     048E                     	;# 
   801     048F                     	;# 
   802     048F                     	;# 
   803     0490                     	;# 
   804     0491                     	;# 
   805     0492                     	;# 
   806     0492                     	;# 
   807     0493                     	;# 
   808     0494                     	;# 
   809     0495                     	;# 
   810     0495                     	;# 
   811     0496                     	;# 
   812     0497                     	;# 
   813     0498                     	;# 
   814     0499                     	;# 
   815     049A                     	;# 
   816     049B                     	;# 
   817     049C                     	;# 
   818     049D                     	;# 
   819     050C                     	;# 
   820     050C                     	;# 
   821     050D                     	;# 
   822     050E                     	;# 
   823     050F                     	;# 
   824     050F                     	;# 
   825     0510                     	;# 
   826     0511                     	;# 
   827     0512                     	;# 
   828     0512                     	;# 
   829     0513                     	;# 
   830     0514                     	;# 
   831     0515                     	;# 
   832     0515                     	;# 
   833     0516                     	;# 
   834     0517                     	;# 
   835     0518                     	;# 
   836     0519                     	;# 
   837     051A                     	;# 
   838     051B                     	;# 
   839     051C                     	;# 
   840     051D                     	;# 
   841     058C                     	;# 
   842     058C                     	;# 
   843     058D                     	;# 
   844     058E                     	;# 
   845     058F                     	;# 
   846     058F                     	;# 
   847     0590                     	;# 
   848     0591                     	;# 
   849     0592                     	;# 
   850     0593                     	;# 
   851     060C                     	;# 
   852     060D                     	;# 
   853     060E                     	;# 
   854     060F                     	;# 
   855     0610                     	;# 
   856     0611                     	;# 
   857     0612                     	;# 
   858     0613                     	;# 
   859     0614                     	;# 
   860     0616                     	;# 
   861     0617                     	;# 
   862     0618                     	;# 
   863     0619                     	;# 
   864     061A                     	;# 
   865     061B                     	;# 
   866     061C                     	;# 
   867     061D                     	;# 
   868     061E                     	;# 
   869     068C                     	;# 
   870     068D                     	;# 
   871     068E                     	;# 
   872     068F                     	;# 
   873     0690                     	;# 
   874     0691                     	;# 
   875     0692                     	;# 
   876     0693                     	;# 
   877     0694                     	;# 
   878     070C                     	;# 
   879     070D                     	;# 
   880     070E                     	;# 
   881     070F                     	;# 
   882     0710                     	;# 
   883     0711                     	;# 
   884     0712                     	;# 
   885     0713                     	;# 
   886     0714                     	;# 
   887     0716                     	;# 
   888     0717                     	;# 
   889     0718                     	;# 
   890     0719                     	;# 
   891     071A                     	;# 
   892     071B                     	;# 
   893     071C                     	;# 
   894     071D                     	;# 
   895     071E                     	;# 
   896     0796                     	;# 
   897     0797                     	;# 
   898     0798                     	;# 
   899     0799                     	;# 
   900     079A                     	;# 
   901     079B                     	;# 
   902     080C                     	;# 
   903     080D                     	;# 
   904     080E                     	;# 
   905     080F                     	;# 
   906     0810                     	;# 
   907     0811                     	;# 
   908     0812                     	;# 
   909     0813                     	;# 
   910     0814                     	;# 
   911     081A                     	;# 
   912     081B                     	;# 
   913     081C                     	;# 
   914     081D                     	;# 
   915     081E                     	;# 
   916     081F                     	;# 
   917     088C                     	;# 
   918     088D                     	;# 
   919     088E                     	;# 
   920     088F                     	;# 
   921     0890                     	;# 
   922     0891                     	;# 
   923     0892                     	;# 
   924     0893                     	;# 
   925     0895                     	;# 
   926     0896                     	;# 
   927     0897                     	;# 
   928     0898                     	;# 
   929     0899                     	;# 
   930     089A                     	;# 
   931     089B                     	;# 
   932     090C                     	;# 
   933     090E                     	;# 
   934     090F                     	;# 
   935     091F                     	;# 
   936     098F                     	;# 
   937     098F                     	;# 
   938     0990                     	;# 
   939     0991                     	;# 
   940     0992                     	;# 
   941     0993                     	;# 
   942     0994                     	;# 
   943     0995                     	;# 
   944     0996                     	;# 
   945     0997                     	;# 
   946     0E0F                     	;# 
   947     0E10                     	;# 
   948     0E11                     	;# 
   949     0E12                     	;# 
   950     0E13                     	;# 
   951     0E14                     	;# 
   952     0E15                     	;# 
   953     0E16                     	;# 
   954     0E17                     	;# 
   955     0E18                     	;# 
   956     0E19                     	;# 
   957     0E1A                     	;# 
   958     0E1B                     	;# 
   959     0E1C                     	;# 
   960     0E1D                     	;# 
   961     0E1E                     	;# 
   962     0E1F                     	;# 
   963     0E20                     	;# 
   964     0E21                     	;# 
   965     0E22                     	;# 
   966     0E23                     	;# 
   967     0E24                     	;# 
   968     0E25                     	;# 
   969     0E26                     	;# 
   970     0E27                     	;# 
   971     0E28                     	;# 
   972     0E29                     	;# 
   973     0E2A                     	;# 
   974     0E2B                     	;# 
   975     0E2C                     	;# 
   976     0E2D                     	;# 
   977     0E2E                     	;# 
   978     0E2F                     	;# 
   979     0E30                     	;# 
   980     0E31                     	;# 
   981     0E32                     	;# 
   982     0E33                     	;# 
   983     0E34                     	;# 
   984     0E35                     	;# 
   985     0E36                     	;# 
   986     0E37                     	;# 
   987     0E8F                     	;# 
   988     0E90                     	;# 
   989     0E91                     	;# 
   990     0E92                     	;# 
   991     0E93                     	;# 
   992     0E94                     	;# 
   993     0E95                     	;# 
   994     0E96                     	;# 
   995     0E97                     	;# 
   996     0E9C                     	;# 
   997     0E9D                     	;# 
   998     0E9E                     	;# 
   999     0EA1                     	;# 
  1000     0EA2                     	;# 
  1001     0EA3                     	;# 
  1002     0EA4                     	;# 
  1003     0EA5                     	;# 
  1004     0EA9                     	;# 
  1005     0EAA                     	;# 
  1006     0EAB                     	;# 
  1007     0EAC                     	;# 
  1008     0EB1                     	;# 
  1009     0EB2                     	;# 
  1010     0EB3                     	;# 
  1011     0EB8                     	;# 
  1012     0EB9                     	;# 
  1013     0EBA                     	;# 
  1014     0EBB                     	;# 
  1015     0EBC                     	;# 
  1016     0EBD                     	;# 
  1017     0EBE                     	;# 
  1018     0EC3                     	;# 
  1019     0EC5                     	;# 
  1020     0EC6                     	;# 
  1021     0EC7                     	;# 
  1022     0EC8                     	;# 
  1023     0EC9                     	;# 
  1024     0ECA                     	;# 
  1025     0ECB                     	;# 
  1026     0ECC                     	;# 
  1027     0F10                     	;# 
  1028     0F11                     	;# 
  1029     0F12                     	;# 
  1030     0F13                     	;# 
  1031     0F14                     	;# 
  1032     0F15                     	;# 
  1033     0F16                     	;# 
  1034     0F17                     	;# 
  1035     0F18                     	;# 
  1036     0F19                     	;# 
  1037     0F1A                     	;# 
  1038     0F1B                     	;# 
  1039     0F1C                     	;# 
  1040     0F1D                     	;# 
  1041     0F1E                     	;# 
  1042     0F1F                     	;# 
  1043     0F20                     	;# 
  1044     0F21                     	;# 
  1045     0F22                     	;# 
  1046     0F23                     	;# 
  1047     0F24                     	;# 
  1048     0F25                     	;# 
  1049     0F26                     	;# 
  1050     0F27                     	;# 
  1051     0F38                     	;# 
  1052     0F39                     	;# 
  1053     0F3A                     	;# 
  1054     0F3B                     	;# 
  1055     0F3C                     	;# 
  1056     0F3D                     	;# 
  1057     0F3E                     	;# 
  1058     0F3F                     	;# 
  1059     0F40                     	;# 
  1060     0F41                     	;# 
  1061     0F43                     	;# 
  1062     0F44                     	;# 
  1063     0F45                     	;# 
  1064     0F46                     	;# 
  1065     0F47                     	;# 
  1066     0F48                     	;# 
  1067     0F49                     	;# 
  1068     0F4A                     	;# 
  1069     0F4B                     	;# 
  1070     0F4C                     	;# 
  1071     0F4E                     	;# 
  1072     0F4F                     	;# 
  1073     0F50                     	;# 
  1074     0F51                     	;# 
  1075     0F52                     	;# 
  1076     0F53                     	;# 
  1077     0F54                     	;# 
  1078     0F55                     	;# 
  1079     0F56                     	;# 
  1080     0F57                     	;# 
  1081     0F65                     	;# 
  1082     0F68                     	;# 
  1083     0F69                     	;# 
  1084     0F6A                     	;# 
  1085     0F6B                     	;# 
  1086     0FE4                     	;# 
  1087     0FE5                     	;# 
  1088     0FE6                     	;# 
  1089     0FE7                     	;# 
  1090     0FE8                     	;# 
  1091     0FE9                     	;# 
  1092     0FEA                     	;# 
  1093     0FEB                     	;# 
  1094     0FED                     	;# 
  1095     0FEE                     	;# 
  1096     0FEF                     	;# 
  1097     0000                     	;# 
  1098     0001                     	;# 
  1099     0002                     	;# 
  1100     0003                     	;# 
  1101     0004                     	;# 
  1102     0005                     	;# 
  1103     0006                     	;# 
  1104     0007                     	;# 
  1105     0008                     	;# 
  1106     0009                     	;# 
  1107     000A                     	;# 
  1108     000B                     	;# 
  1109     000C                     	;# 
  1110     000D                     	;# 
  1111     000E                     	;# 
  1112     0010                     	;# 
  1113     0011                     	;# 
  1114     0012                     	;# 
  1115     0013                     	;# 
  1116     0016                     	;# 
  1117     0017                     	;# 
  1118     0018                     	;# 
  1119     001C                     	;# 
  1120     001C                     	;# 
  1121     001D                     	;# 
  1122     001D                     	;# 
  1123     001E                     	;# 
  1124     001F                     	;# 
  1125     008C                     	;# 
  1126     008C                     	;# 
  1127     008D                     	;# 
  1128     008E                     	;# 
  1129     008E                     	;# 
  1130     008F                     	;# 
  1131     0090                     	;# 
  1132     0090                     	;# 
  1133     0091                     	;# 
  1134     0093                     	;# 
  1135     0094                     	;# 
  1136     0095                     	;# 
  1137     0096                     	;# 
  1138     0097                     	;# 
  1139     0098                     	;# 
  1140     0099                     	;# 
  1141     009A                     	;# 
  1142     009B                     	;# 
  1143     009C                     	;# 
  1144     009D                     	;# 
  1145     009E                     	;# 
  1146     010C                     	;# 
  1147     010D                     	;# 
  1148     010E                     	;# 
  1149     010E                     	;# 
  1150     010F                     	;# 
  1151     0110                     	;# 
  1152     0110                     	;# 
  1153     0111                     	;# 
  1154     0112                     	;# 
  1155     0112                     	;# 
  1156     0113                     	;# 
  1157     0114                     	;# 
  1158     0114                     	;# 
  1159     0115                     	;# 
  1160     0116                     	;# 
  1161     0116                     	;# 
  1162     0117                     	;# 
  1163     0119                     	;# 
  1164     0119                     	;# 
  1165     0119                     	;# 
  1166     011A                     	;# 
  1167     011A                     	;# 
  1168     011A                     	;# 
  1169     011B                     	;# 
  1170     011B                     	;# 
  1171     011B                     	;# 
  1172     011B                     	;# 
  1173     011B                     	;# 
  1174     011C                     	;# 
  1175     011C                     	;# 
  1176     011C                     	;# 
  1177     011D                     	;# 
  1178     011D                     	;# 
  1179     011D                     	;# 
  1180     011E                     	;# 
  1181     011E                     	;# 
  1182     011E                     	;# 
  1183     011F                     	;# 
  1184     011F                     	;# 
  1185     011F                     	;# 
  1186     011F                     	;# 
  1187     011F                     	;# 
  1188     018C                     	;# 
  1189     018D                     	;# 
  1190     018E                     	;# 
  1191     018F                     	;# 
  1192     0190                     	;# 
  1193     0191                     	;# 
  1194     0192                     	;# 
  1195     0196                     	;# 
  1196     0197                     	;# 
  1197     0198                     	;# 
  1198     0199                     	;# 
  1199     019A                     	;# 
  1200     019B                     	;# 
  1201     019C                     	;# 
  1202     020C                     	;# 
  1203     020C                     	;# 
  1204     020D                     	;# 
  1205     020E                     	;# 
  1206     020F                     	;# 
  1207     020F                     	;# 
  1208     0210                     	;# 
  1209     0210                     	;# 
  1210     0211                     	;# 
  1211     0211                     	;# 
  1212     0212                     	;# 
  1213     0212                     	;# 
  1214     0213                     	;# 
  1215     0214                     	;# 
  1216     0215                     	;# 
  1217     0215                     	;# 
  1218     0216                     	;# 
  1219     0216                     	;# 
  1220     0217                     	;# 
  1221     0217                     	;# 
  1222     0218                     	;# 
  1223     0218                     	;# 
  1224     0219                     	;# 
  1225     021A                     	;# 
  1226     021B                     	;# 
  1227     021B                     	;# 
  1228     021C                     	;# 
  1229     021C                     	;# 
  1230     021D                     	;# 
  1231     021D                     	;# 
  1232     021E                     	;# 
  1233     021F                     	;# 
  1234     028C                     	;# 
  1235     028C                     	;# 
  1236     028D                     	;# 
  1237     028D                     	;# 
  1238     028E                     	;# 
  1239     028F                     	;# 
  1240     0290                     	;# 
  1241     0290                     	;# 
  1242     0291                     	;# 
  1243     0292                     	;# 
  1244     0292                     	;# 
  1245     0293                     	;# 
  1246     0293                     	;# 
  1247     0294                     	;# 
  1248     0295                     	;# 
  1249     0296                     	;# 
  1250     0296                     	;# 
  1251     0297                     	;# 
  1252     0298                     	;# 
  1253     0298                     	;# 
  1254     0299                     	;# 
  1255     0299                     	;# 
  1256     029A                     	;# 
  1257     029B                     	;# 
  1258     029C                     	;# 
  1259     029C                     	;# 
  1260     029D                     	;# 
  1261     030C                     	;# 
  1262     030C                     	;# 
  1263     030D                     	;# 
  1264     030E                     	;# 
  1265     030F                     	;# 
  1266     0310                     	;# 
  1267     0310                     	;# 
  1268     0311                     	;# 
  1269     0312                     	;# 
  1270     0313                     	;# 
  1271     0314                     	;# 
  1272     0314                     	;# 
  1273     0315                     	;# 
  1274     0316                     	;# 
  1275     0317                     	;# 
  1276     0318                     	;# 
  1277     0318                     	;# 
  1278     0319                     	;# 
  1279     031A                     	;# 
  1280     031B                     	;# 
  1281     031C                     	;# 
  1282     031C                     	;# 
  1283     031D                     	;# 
  1284     031E                     	;# 
  1285     031F                     	;# 
  1286     038C                     	;# 
  1287     038C                     	;# 
  1288     038D                     	;# 
  1289     038E                     	;# 
  1290     0390                     	;# 
  1291     0390                     	;# 
  1292     0391                     	;# 
  1293     0392                     	;# 
  1294     040C                     	;# 
  1295     040D                     	;# 
  1296     040E                     	;# 
  1297     040F                     	;# 
  1298     0410                     	;# 
  1299     0411                     	;# 
  1300     0416                     	;# 
  1301     0416                     	;# 
  1302     0417                     	;# 
  1303     0418                     	;# 
  1304     0418                     	;# 
  1305     0419                     	;# 
  1306     041A                     	;# 
  1307     041A                     	;# 
  1308     041B                     	;# 
  1309     041C                     	;# 
  1310     041C                     	;# 
  1311     041D                     	;# 
  1312     041E                     	;# 
  1313     041F                     	;# 
  1314     048C                     	;# 
  1315     048C                     	;# 
  1316     048D                     	;# 
  1317     048E                     	;# 
  1318     048F                     	;# 
  1319     048F                     	;# 
  1320     0490                     	;# 
  1321     0491                     	;# 
  1322     0492                     	;# 
  1323     0492                     	;# 
  1324     0493                     	;# 
  1325     0494                     	;# 
  1326     0495                     	;# 
  1327     0495                     	;# 
  1328     0496                     	;# 
  1329     0497                     	;# 
  1330     0498                     	;# 
  1331     0499                     	;# 
  1332     049A                     	;# 
  1333     049B                     	;# 
  1334     049C                     	;# 
  1335     049D                     	;# 
  1336     050C                     	;# 
  1337     050C                     	;# 
  1338     050D                     	;# 
  1339     050E                     	;# 
  1340     050F                     	;# 
  1341     050F                     	;# 
  1342     0510                     	;# 
  1343     0511                     	;# 
  1344     0512                     	;# 
  1345     0512                     	;# 
  1346     0513                     	;# 
  1347     0514                     	;# 
  1348     0515                     	;# 
  1349     0515                     	;# 
  1350     0516                     	;# 
  1351     0517                     	;# 
  1352     0518                     	;# 
  1353     0519                     	;# 
  1354     051A                     	;# 
  1355     051B                     	;# 
  1356     051C                     	;# 
  1357     051D                     	;# 
  1358     058C                     	;# 
  1359     058C                     	;# 
  1360     058D                     	;# 
  1361     058E                     	;# 
  1362     058F                     	;# 
  1363     058F                     	;# 
  1364     0590                     	;# 
  1365     0591                     	;# 
  1366     0592                     	;# 
  1367     0593                     	;# 
  1368     060C                     	;# 
  1369     060D                     	;# 
  1370     060E                     	;# 
  1371     060F                     	;# 
  1372     0610                     	;# 
  1373     0611                     	;# 
  1374     0612                     	;# 
  1375     0613                     	;# 
  1376     0614                     	;# 
  1377     0616                     	;# 
  1378     0617                     	;# 
  1379     0618                     	;# 
  1380     0619                     	;# 
  1381     061A                     	;# 
  1382     061B                     	;# 
  1383     061C                     	;# 
  1384     061D                     	;# 
  1385     061E                     	;# 
  1386     068C                     	;# 
  1387     068D                     	;# 
  1388     068E                     	;# 
  1389     068F                     	;# 
  1390     0690                     	;# 
  1391     0691                     	;# 
  1392     0692                     	;# 
  1393     0693                     	;# 
  1394     0694                     	;# 
  1395     070C                     	;# 
  1396     070D                     	;# 
  1397     070E                     	;# 
  1398     070F                     	;# 
  1399     0710                     	;# 
  1400     0711                     	;# 
  1401     0712                     	;# 
  1402     0713                     	;# 
  1403     0714                     	;# 
  1404     0716                     	;# 
  1405     0717                     	;# 
  1406     0718                     	;# 
  1407     0719                     	;# 
  1408     071A                     	;# 
  1409     071B                     	;# 
  1410     071C                     	;# 
  1411     071D                     	;# 
  1412     071E                     	;# 
  1413     0796                     	;# 
  1414     0797                     	;# 
  1415     0798                     	;# 
  1416     0799                     	;# 
  1417     079A                     	;# 
  1418     079B                     	;# 
  1419     080C                     	;# 
  1420     080D                     	;# 
  1421     080E                     	;# 
  1422     080F                     	;# 
  1423     0810                     	;# 
  1424     0811                     	;# 
  1425     0812                     	;# 
  1426     0813                     	;# 
  1427     0814                     	;# 
  1428     081A                     	;# 
  1429     081B                     	;# 
  1430     081C                     	;# 
  1431     081D                     	;# 
  1432     081E                     	;# 
  1433     081F                     	;# 
  1434     088C                     	;# 
  1435     088D                     	;# 
  1436     088E                     	;# 
  1437     088F                     	;# 
  1438     0890                     	;# 
  1439     0891                     	;# 
  1440     0892                     	;# 
  1441     0893                     	;# 
  1442     0895                     	;# 
  1443     0896                     	;# 
  1444     0897                     	;# 
  1445     0898                     	;# 
  1446     0899                     	;# 
  1447     089A                     	;# 
  1448     089B                     	;# 
  1449     090C                     	;# 
  1450     090E                     	;# 
  1451     090F                     	;# 
  1452     091F                     	;# 
  1453     098F                     	;# 
  1454     098F                     	;# 
  1455     0990                     	;# 
  1456     0991                     	;# 
  1457     0992                     	;# 
  1458     0993                     	;# 
  1459     0994                     	;# 
  1460     0995                     	;# 
  1461     0996                     	;# 
  1462     0997                     	;# 
  1463     0E0F                     	;# 
  1464     0E10                     	;# 
  1465     0E11                     	;# 
  1466     0E12                     	;# 
  1467     0E13                     	;# 
  1468     0E14                     	;# 
  1469     0E15                     	;# 
  1470     0E16                     	;# 
  1471     0E17                     	;# 
  1472     0E18                     	;# 
  1473     0E19                     	;# 
  1474     0E1A                     	;# 
  1475     0E1B                     	;# 
  1476     0E1C                     	;# 
  1477     0E1D                     	;# 
  1478     0E1E                     	;# 
  1479     0E1F                     	;# 
  1480     0E20                     	;# 
  1481     0E21                     	;# 
  1482     0E22                     	;# 
  1483     0E23                     	;# 
  1484     0E24                     	;# 
  1485     0E25                     	;# 
  1486     0E26                     	;# 
  1487     0E27                     	;# 
  1488     0E28                     	;# 
  1489     0E29                     	;# 
  1490     0E2A                     	;# 
  1491     0E2B                     	;# 
  1492     0E2C                     	;# 
  1493     0E2D                     	;# 
  1494     0E2E                     	;# 
  1495     0E2F                     	;# 
  1496     0E30                     	;# 
  1497     0E31                     	;# 
  1498     0E32                     	;# 
  1499     0E33                     	;# 
  1500     0E34                     	;# 
  1501     0E35                     	;# 
  1502     0E36                     	;# 
  1503     0E37                     	;# 
  1504     0E8F                     	;# 
  1505     0E90                     	;# 
  1506     0E91                     	;# 
  1507     0E92                     	;# 
  1508     0E93                     	;# 
  1509     0E94                     	;# 
  1510     0E95                     	;# 
  1511     0E96                     	;# 
  1512     0E97                     	;# 
  1513     0E9C                     	;# 
  1514     0E9D                     	;# 
  1515     0E9E                     	;# 
  1516     0EA1                     	;# 
  1517     0EA2                     	;# 
  1518     0EA3                     	;# 
  1519     0EA4                     	;# 
  1520     0EA5                     	;# 
  1521     0EA9                     	;# 
  1522     0EAA                     	;# 
  1523     0EAB                     	;# 
  1524     0EAC                     	;# 
  1525     0EB1                     	;# 
  1526     0EB2                     	;# 
  1527     0EB3                     	;# 
  1528     0EB8                     	;# 
  1529     0EB9                     	;# 
  1530     0EBA                     	;# 
  1531     0EBB                     	;# 
  1532     0EBC                     	;# 
  1533     0EBD                     	;# 
  1534     0EBE                     	;# 
  1535     0EC3                     	;# 
  1536     0EC5                     	;# 
  1537     0EC6                     	;# 
  1538     0EC7                     	;# 
  1539     0EC8                     	;# 
  1540     0EC9                     	;# 
  1541     0ECA                     	;# 
  1542     0ECB                     	;# 
  1543     0ECC                     	;# 
  1544     0F10                     	;# 
  1545     0F11                     	;# 
  1546     0F12                     	;# 
  1547     0F13                     	;# 
  1548     0F14                     	;# 
  1549     0F15                     	;# 
  1550     0F16                     	;# 
  1551     0F17                     	;# 
  1552     0F18                     	;# 
  1553     0F19                     	;# 
  1554     0F1A                     	;# 
  1555     0F1B                     	;# 
  1556     0F1C                     	;# 
  1557     0F1D                     	;# 
  1558     0F1E                     	;# 
  1559     0F1F                     	;# 
  1560     0F20                     	;# 
  1561     0F21                     	;# 
  1562     0F22                     	;# 
  1563     0F23                     	;# 
  1564     0F24                     	;# 
  1565     0F25                     	;# 
  1566     0F26                     	;# 
  1567     0F27                     	;# 
  1568     0F38                     	;# 
  1569     0F39                     	;# 
  1570     0F3A                     	;# 
  1571     0F3B                     	;# 
  1572     0F3C                     	;# 
  1573     0F3D                     	;# 
  1574     0F3E                     	;# 
  1575     0F3F                     	;# 
  1576     0F40                     	;# 
  1577     0F41                     	;# 
  1578     0F43                     	;# 
  1579     0F44                     	;# 
  1580     0F45                     	;# 
  1581     0F46                     	;# 
  1582     0F47                     	;# 
  1583     0F48                     	;# 
  1584     0F49                     	;# 
  1585     0F4A                     	;# 
  1586     0F4B                     	;# 
  1587     0F4C                     	;# 
  1588     0F4E                     	;# 
  1589     0F4F                     	;# 
  1590     0F50                     	;# 
  1591     0F51                     	;# 
  1592     0F52                     	;# 
  1593     0F53                     	;# 
  1594     0F54                     	;# 
  1595     0F55                     	;# 
  1596     0F56                     	;# 
  1597     0F57                     	;# 
  1598     0F65                     	;# 
  1599     0F68                     	;# 
  1600     0F69                     	;# 
  1601     0F6A                     	;# 
  1602     0F6B                     	;# 
  1603     0FE4                     	;# 
  1604     0FE5                     	;# 
  1605     0FE6                     	;# 
  1606     0FE7                     	;# 
  1607     0FE8                     	;# 
  1608     0FE9                     	;# 
  1609     0FEA                     	;# 
  1610     0FEB                     	;# 
  1611     0FED                     	;# 
  1612     0FEE                     	;# 
  1613     0FEF                     	;# 
  1614     0000                     	;# 
  1615     0001                     	;# 
  1616     0002                     	;# 
  1617     0003                     	;# 
  1618     0004                     	;# 
  1619     0005                     	;# 
  1620     0006                     	;# 
  1621     0007                     	;# 
  1622     0008                     	;# 
  1623     0009                     	;# 
  1624     000A                     	;# 
  1625     000B                     	;# 
  1626     000C                     	;# 
  1627     000D                     	;# 
  1628     000E                     	;# 
  1629     0010                     	;# 
  1630     0011                     	;# 
  1631     0012                     	;# 
  1632     0013                     	;# 
  1633     0016                     	;# 
  1634     0017                     	;# 
  1635     0018                     	;# 
  1636     001C                     	;# 
  1637     001C                     	;# 
  1638     001D                     	;# 
  1639     001D                     	;# 
  1640     001E                     	;# 
  1641     001F                     	;# 
  1642     008C                     	;# 
  1643     008C                     	;# 
  1644     008D                     	;# 
  1645     008E                     	;# 
  1646     008E                     	;# 
  1647     008F                     	;# 
  1648     0090                     	;# 
  1649     0090                     	;# 
  1650     0091                     	;# 
  1651     0093                     	;# 
  1652     0094                     	;# 
  1653     0095                     	;# 
  1654     0096                     	;# 
  1655     0097                     	;# 
  1656     0098                     	;# 
  1657     0099                     	;# 
  1658     009A                     	;# 
  1659     009B                     	;# 
  1660     009C                     	;# 
  1661     009D                     	;# 
  1662     009E                     	;# 
  1663     010C                     	;# 
  1664     010D                     	;# 
  1665     010E                     	;# 
  1666     010E                     	;# 
  1667     010F                     	;# 
  1668     0110                     	;# 
  1669     0110                     	;# 
  1670     0111                     	;# 
  1671     0112                     	;# 
  1672     0112                     	;# 
  1673     0113                     	;# 
  1674     0114                     	;# 
  1675     0114                     	;# 
  1676     0115                     	;# 
  1677     0116                     	;# 
  1678     0116                     	;# 
  1679     0117                     	;# 
  1680     0119                     	;# 
  1681     0119                     	;# 
  1682     0119                     	;# 
  1683     011A                     	;# 
  1684     011A                     	;# 
  1685     011A                     	;# 
  1686     011B                     	;# 
  1687     011B                     	;# 
  1688     011B                     	;# 
  1689     011B                     	;# 
  1690     011B                     	;# 
  1691     011C                     	;# 
  1692     011C                     	;# 
  1693     011C                     	;# 
  1694     011D                     	;# 
  1695     011D                     	;# 
  1696     011D                     	;# 
  1697     011E                     	;# 
  1698     011E                     	;# 
  1699     011E                     	;# 
  1700     011F                     	;# 
  1701     011F                     	;# 
  1702     011F                     	;# 
  1703     011F                     	;# 
  1704     011F                     	;# 
  1705     018C                     	;# 
  1706     018D                     	;# 
  1707     018E                     	;# 
  1708     018F                     	;# 
  1709     0190                     	;# 
  1710     0191                     	;# 
  1711     0192                     	;# 
  1712     0196                     	;# 
  1713     0197                     	;# 
  1714     0198                     	;# 
  1715     0199                     	;# 
  1716     019A                     	;# 
  1717     019B                     	;# 
  1718     019C                     	;# 
  1719     020C                     	;# 
  1720     020C                     	;# 
  1721     020D                     	;# 
  1722     020E                     	;# 
  1723     020F                     	;# 
  1724     020F                     	;# 
  1725     0210                     	;# 
  1726     0210                     	;# 
  1727     0211                     	;# 
  1728     0211                     	;# 
  1729     0212                     	;# 
  1730     0212                     	;# 
  1731     0213                     	;# 
  1732     0214                     	;# 
  1733     0215                     	;# 
  1734     0215                     	;# 
  1735     0216                     	;# 
  1736     0216                     	;# 
  1737     0217                     	;# 
  1738     0217                     	;# 
  1739     0218                     	;# 
  1740     0218                     	;# 
  1741     0219                     	;# 
  1742     021A                     	;# 
  1743     021B                     	;# 
  1744     021B                     	;# 
  1745     021C                     	;# 
  1746     021C                     	;# 
  1747     021D                     	;# 
  1748     021D                     	;# 
  1749     021E                     	;# 
  1750     021F                     	;# 
  1751     028C                     	;# 
  1752     028C                     	;# 
  1753     028D                     	;# 
  1754     028D                     	;# 
  1755     028E                     	;# 
  1756     028F                     	;# 
  1757     0290                     	;# 
  1758     0290                     	;# 
  1759     0291                     	;# 
  1760     0292                     	;# 
  1761     0292                     	;# 
  1762     0293                     	;# 
  1763     0293                     	;# 
  1764     0294                     	;# 
  1765     0295                     	;# 
  1766     0296                     	;# 
  1767     0296                     	;# 
  1768     0297                     	;# 
  1769     0298                     	;# 
  1770     0298                     	;# 
  1771     0299                     	;# 
  1772     0299                     	;# 
  1773     029A                     	;# 
  1774     029B                     	;# 
  1775     029C                     	;# 
  1776     029C                     	;# 
  1777     029D                     	;# 
  1778     030C                     	;# 
  1779     030C                     	;# 
  1780     030D                     	;# 
  1781     030E                     	;# 
  1782     030F                     	;# 
  1783     0310                     	;# 
  1784     0310                     	;# 
  1785     0311                     	;# 
  1786     0312                     	;# 
  1787     0313                     	;# 
  1788     0314                     	;# 
  1789     0314                     	;# 
  1790     0315                     	;# 
  1791     0316                     	;# 
  1792     0317                     	;# 
  1793     0318                     	;# 
  1794     0318                     	;# 
  1795     0319                     	;# 
  1796     031A                     	;# 
  1797     031B                     	;# 
  1798     031C                     	;# 
  1799     031C                     	;# 
  1800     031D                     	;# 
  1801     031E                     	;# 
  1802     031F                     	;# 
  1803     038C                     	;# 
  1804     038C                     	;# 
  1805     038D                     	;# 
  1806     038E                     	;# 
  1807     0390                     	;# 
  1808     0390                     	;# 
  1809     0391                     	;# 
  1810     0392                     	;# 
  1811     040C                     	;# 
  1812     040D                     	;# 
  1813     040E                     	;# 
  1814     040F                     	;# 
  1815     0410                     	;# 
  1816     0411                     	;# 
  1817     0416                     	;# 
  1818     0416                     	;# 
  1819     0417                     	;# 
  1820     0418                     	;# 
  1821     0418                     	;# 
  1822     0419                     	;# 
  1823     041A                     	;# 
  1824     041A                     	;# 
  1825     041B                     	;# 
  1826     041C                     	;# 
  1827     041C                     	;# 
  1828     041D                     	;# 
  1829     041E                     	;# 
  1830     041F                     	;# 
  1831     048C                     	;# 
  1832     048C                     	;# 
  1833     048D                     	;# 
  1834     048E                     	;# 
  1835     048F                     	;# 
  1836     048F                     	;# 
  1837     0490                     	;# 
  1838     0491                     	;# 
  1839     0492                     	;# 
  1840     0492                     	;# 
  1841     0493                     	;# 
  1842     0494                     	;# 
  1843     0495                     	;# 
  1844     0495                     	;# 
  1845     0496                     	;# 
  1846     0497                     	;# 
  1847     0498                     	;# 
  1848     0499                     	;# 
  1849     049A                     	;# 
  1850     049B                     	;# 
  1851     049C                     	;# 
  1852     049D                     	;# 
  1853     050C                     	;# 
  1854     050C                     	;# 
  1855     050D                     	;# 
  1856     050E                     	;# 
  1857     050F                     	;# 
  1858     050F                     	;# 
  1859     0510                     	;# 
  1860     0511                     	;# 
  1861     0512                     	;# 
  1862     0512                     	;# 
  1863     0513                     	;# 
  1864     0514                     	;# 
  1865     0515                     	;# 
  1866     0515                     	;# 
  1867     0516                     	;# 
  1868     0517                     	;# 
  1869     0518                     	;# 
  1870     0519                     	;# 
  1871     051A                     	;# 
  1872     051B                     	;# 
  1873     051C                     	;# 
  1874     051D                     	;# 
  1875     058C                     	;# 
  1876     058C                     	;# 
  1877     058D                     	;# 
  1878     058E                     	;# 
  1879     058F                     	;# 
  1880     058F                     	;# 
  1881     0590                     	;# 
  1882     0591                     	;# 
  1883     0592                     	;# 
  1884     0593                     	;# 
  1885     060C                     	;# 
  1886     060D                     	;# 
  1887     060E                     	;# 
  1888     060F                     	;# 
  1889     0610                     	;# 
  1890     0611                     	;# 
  1891     0612                     	;# 
  1892     0613                     	;# 
  1893     0614                     	;# 
  1894     0616                     	;# 
  1895     0617                     	;# 
  1896     0618                     	;# 
  1897     0619                     	;# 
  1898     061A                     	;# 
  1899     061B                     	;# 
  1900     061C                     	;# 
  1901     061D                     	;# 
  1902     061E                     	;# 
  1903     068C                     	;# 
  1904     068D                     	;# 
  1905     068E                     	;# 
  1906     068F                     	;# 
  1907     0690                     	;# 
  1908     0691                     	;# 
  1909     0692                     	;# 
  1910     0693                     	;# 
  1911     0694                     	;# 
  1912     070C                     	;# 
  1913     070D                     	;# 
  1914     070E                     	;# 
  1915     070F                     	;# 
  1916     0710                     	;# 
  1917     0711                     	;# 
  1918     0712                     	;# 
  1919     0713                     	;# 
  1920     0714                     	;# 
  1921     0716                     	;# 
  1922     0717                     	;# 
  1923     0718                     	;# 
  1924     0719                     	;# 
  1925     071A                     	;# 
  1926     071B                     	;# 
  1927     071C                     	;# 
  1928     071D                     	;# 
  1929     071E                     	;# 
  1930     0796                     	;# 
  1931     0797                     	;# 
  1932     0798                     	;# 
  1933     0799                     	;# 
  1934     079A                     	;# 
  1935     079B                     	;# 
  1936     080C                     	;# 
  1937     080D                     	;# 
  1938     080E                     	;# 
  1939     080F                     	;# 
  1940     0810                     	;# 
  1941     0811                     	;# 
  1942     0812                     	;# 
  1943     0813                     	;# 
  1944     0814                     	;# 
  1945     081A                     	;# 
  1946     081B                     	;# 
  1947     081C                     	;# 
  1948     081D                     	;# 
  1949     081E                     	;# 
  1950     081F                     	;# 
  1951     088C                     	;# 
  1952     088D                     	;# 
  1953     088E                     	;# 
  1954     088F                     	;# 
  1955     0890                     	;# 
  1956     0891                     	;# 
  1957     0892                     	;# 
  1958     0893                     	;# 
  1959     0895                     	;# 
  1960     0896                     	;# 
  1961     0897                     	;# 
  1962     0898                     	;# 
  1963     0899                     	;# 
  1964     089A                     	;# 
  1965     089B                     	;# 
  1966     090C                     	;# 
  1967     090E                     	;# 
  1968     090F                     	;# 
  1969     091F                     	;# 
  1970     098F                     	;# 
  1971     098F                     	;# 
  1972     0990                     	;# 
  1973     0991                     	;# 
  1974     0992                     	;# 
  1975     0993                     	;# 
  1976     0994                     	;# 
  1977     0995                     	;# 
  1978     0996                     	;# 
  1979     0997                     	;# 
  1980     0E0F                     	;# 
  1981     0E10                     	;# 
  1982     0E11                     	;# 
  1983     0E12                     	;# 
  1984     0E13                     	;# 
  1985     0E14                     	;# 
  1986     0E15                     	;# 
  1987     0E16                     	;# 
  1988     0E17                     	;# 
  1989     0E18                     	;# 
  1990     0E19                     	;# 
  1991     0E1A                     	;# 
  1992     0E1B                     	;# 
  1993     0E1C                     	;# 
  1994     0E1D                     	;# 
  1995     0E1E                     	;# 
  1996     0E1F                     	;# 
  1997     0E20                     	;# 
  1998     0E21                     	;# 
  1999     0E22                     	;# 
  2000     0E23                     	;# 
  2001     0E24                     	;# 
  2002     0E25                     	;# 
  2003     0E26                     	;# 
  2004     0E27                     	;# 
  2005     0E28                     	;# 
  2006     0E29                     	;# 
  2007     0E2A                     	;# 
  2008     0E2B                     	;# 
  2009     0E2C                     	;# 
  2010     0E2D                     	;# 
  2011     0E2E                     	;# 
  2012     0E2F                     	;# 
  2013     0E30                     	;# 
  2014     0E31                     	;# 
  2015     0E32                     	;# 
  2016     0E33                     	;# 
  2017     0E34                     	;# 
  2018     0E35                     	;# 
  2019     0E36                     	;# 
  2020     0E37                     	;# 
  2021     0E8F                     	;# 
  2022     0E90                     	;# 
  2023     0E91                     	;# 
  2024     0E92                     	;# 
  2025     0E93                     	;# 
  2026     0E94                     	;# 
  2027     0E95                     	;# 
  2028     0E96                     	;# 
  2029     0E97                     	;# 
  2030     0E9C                     	;# 
  2031     0E9D                     	;# 
  2032     0E9E                     	;# 
  2033     0EA1                     	;# 
  2034     0EA2                     	;# 
  2035     0EA3                     	;# 
  2036     0EA4                     	;# 
  2037     0EA5                     	;# 
  2038     0EA9                     	;# 
  2039     0EAA                     	;# 
  2040     0EAB                     	;# 
  2041     0EAC                     	;# 
  2042     0EB1                     	;# 
  2043     0EB2                     	;# 
  2044     0EB3                     	;# 
  2045     0EB8                     	;# 
  2046     0EB9                     	;# 
  2047     0EBA                     	;# 
  2048     0EBB                     	;# 
  2049     0EBC                     	;# 
  2050     0EBD                     	;# 
  2051     0EBE                     	;# 
  2052     0EC3                     	;# 
  2053     0EC5                     	;# 
  2054     0EC6                     	;# 
  2055     0EC7                     	;# 
  2056     0EC8                     	;# 
  2057     0EC9                     	;# 
  2058     0ECA                     	;# 
  2059     0ECB                     	;# 
  2060     0ECC                     	;# 
  2061     0F10                     	;# 
  2062     0F11                     	;# 
  2063     0F12                     	;# 
  2064     0F13                     	;# 
  2065     0F14                     	;# 
  2066     0F15                     	;# 
  2067     0F16                     	;# 
  2068     0F17                     	;# 
  2069     0F18                     	;# 
  2070     0F19                     	;# 
  2071     0F1A                     	;# 
  2072     0F1B                     	;# 
  2073     0F1C                     	;# 
  2074     0F1D                     	;# 
  2075     0F1E                     	;# 
  2076     0F1F                     	;# 
  2077     0F20                     	;# 
  2078     0F21                     	;# 
  2079     0F22                     	;# 
  2080     0F23                     	;# 
  2081     0F24                     	;# 
  2082     0F25                     	;# 
  2083     0F26                     	;# 
  2084     0F27                     	;# 
  2085     0F38                     	;# 
  2086     0F39                     	;# 
  2087     0F3A                     	;# 
  2088     0F3B                     	;# 
  2089     0F3C                     	;# 
  2090     0F3D                     	;# 
  2091     0F3E                     	;# 
  2092     0F3F                     	;# 
  2093     0F40                     	;# 
  2094     0F41                     	;# 
  2095     0F43                     	;# 
  2096     0F44                     	;# 
  2097     0F45                     	;# 
  2098     0F46                     	;# 
  2099     0F47                     	;# 
  2100     0F48                     	;# 
  2101     0F49                     	;# 
  2102     0F4A                     	;# 
  2103     0F4B                     	;# 
  2104     0F4C                     	;# 
  2105     0F4E                     	;# 
  2106     0F4F                     	;# 
  2107     0F50                     	;# 
  2108     0F51                     	;# 
  2109     0F52                     	;# 
  2110     0F53                     	;# 
  2111     0F54                     	;# 
  2112     0F55                     	;# 
  2113     0F56                     	;# 
  2114     0F57                     	;# 
  2115     0F65                     	;# 
  2116     0F68                     	;# 
  2117     0F69                     	;# 
  2118     0F6A                     	;# 
  2119     0F6B                     	;# 
  2120     0FE4                     	;# 
  2121     0FE5                     	;# 
  2122     0FE6                     	;# 
  2123     0FE7                     	;# 
  2124     0FE8                     	;# 
  2125     0FE9                     	;# 
  2126     0FEA                     	;# 
  2127     0FEB                     	;# 
  2128     0FED                     	;# 
  2129     0FEE                     	;# 
  2130     0FEF                     	;# 
  2131     0000                     	;# 
  2132     0001                     	;# 
  2133     0002                     	;# 
  2134     0003                     	;# 
  2135     0004                     	;# 
  2136     0005                     	;# 
  2137     0006                     	;# 
  2138     0007                     	;# 
  2139     0008                     	;# 
  2140     0009                     	;# 
  2141     000A                     	;# 
  2142     000B                     	;# 
  2143     000C                     	;# 
  2144     000D                     	;# 
  2145     000E                     	;# 
  2146     0010                     	;# 
  2147     0011                     	;# 
  2148     0012                     	;# 
  2149     0013                     	;# 
  2150     0016                     	;# 
  2151     0017                     	;# 
  2152     0018                     	;# 
  2153     001C                     	;# 
  2154     001C                     	;# 
  2155     001D                     	;# 
  2156     001D                     	;# 
  2157     001E                     	;# 
  2158     001F                     	;# 
  2159     008C                     	;# 
  2160     008C                     	;# 
  2161     008D                     	;# 
  2162     008E                     	;# 
  2163     008E                     	;# 
  2164     008F                     	;# 
  2165     0090                     	;# 
  2166     0090                     	;# 
  2167     0091                     	;# 
  2168     0093                     	;# 
  2169     0094                     	;# 
  2170     0095                     	;# 
  2171     0096                     	;# 
  2172     0097                     	;# 
  2173     0098                     	;# 
  2174     0099                     	;# 
  2175     009A                     	;# 
  2176     009B                     	;# 
  2177     009C                     	;# 
  2178     009D                     	;# 
  2179     009E                     	;# 
  2180     010C                     	;# 
  2181     010D                     	;# 
  2182     010E                     	;# 
  2183     010E                     	;# 
  2184     010F                     	;# 
  2185     0110                     	;# 
  2186     0110                     	;# 
  2187     0111                     	;# 
  2188     0112                     	;# 
  2189     0112                     	;# 
  2190     0113                     	;# 
  2191     0114                     	;# 
  2192     0114                     	;# 
  2193     0115                     	;# 
  2194     0116                     	;# 
  2195     0116                     	;# 
  2196     0117                     	;# 
  2197     0119                     	;# 
  2198     0119                     	;# 
  2199     0119                     	;# 
  2200     011A                     	;# 
  2201     011A                     	;# 
  2202     011A                     	;# 
  2203     011B                     	;# 
  2204     011B                     	;# 
  2205     011B                     	;# 
  2206     011B                     	;# 
  2207     011B                     	;# 
  2208     011C                     	;# 
  2209     011C                     	;# 
  2210     011C                     	;# 
  2211     011D                     	;# 
  2212     011D                     	;# 
  2213     011D                     	;# 
  2214     011E                     	;# 
  2215     011E                     	;# 
  2216     011E                     	;# 
  2217     011F                     	;# 
  2218     011F                     	;# 
  2219     011F                     	;# 
  2220     011F                     	;# 
  2221     011F                     	;# 
  2222     018C                     	;# 
  2223     018D                     	;# 
  2224     018E                     	;# 
  2225     018F                     	;# 
  2226     0190                     	;# 
  2227     0191                     	;# 
  2228     0192                     	;# 
  2229     0196                     	;# 
  2230     0197                     	;# 
  2231     0198                     	;# 
  2232     0199                     	;# 
  2233     019A                     	;# 
  2234     019B                     	;# 
  2235     019C                     	;# 
  2236     020C                     	;# 
  2237     020C                     	;# 
  2238     020D                     	;# 
  2239     020E                     	;# 
  2240     020F                     	;# 
  2241     020F                     	;# 
  2242     0210                     	;# 
  2243     0210                     	;# 
  2244     0211                     	;# 
  2245     0211                     	;# 
  2246     0212                     	;# 
  2247     0212                     	;# 
  2248     0213                     	;# 
  2249     0214                     	;# 
  2250     0215                     	;# 
  2251     0215                     	;# 
  2252     0216                     	;# 
  2253     0216                     	;# 
  2254     0217                     	;# 
  2255     0217                     	;# 
  2256     0218                     	;# 
  2257     0218                     	;# 
  2258     0219                     	;# 
  2259     021A                     	;# 
  2260     021B                     	;# 
  2261     021B                     	;# 
  2262     021C                     	;# 
  2263     021C                     	;# 
  2264     021D                     	;# 
  2265     021D                     	;# 
  2266     021E                     	;# 
  2267     021F                     	;# 
  2268     028C                     	;# 
  2269     028C                     	;# 
  2270     028D                     	;# 
  2271     028D                     	;# 
  2272     028E                     	;# 
  2273     028F                     	;# 
  2274     0290                     	;# 
  2275     0290                     	;# 
  2276     0291                     	;# 
  2277     0292                     	;# 
  2278     0292                     	;# 
  2279     0293                     	;# 
  2280     0293                     	;# 
  2281     0294                     	;# 
  2282     0295                     	;# 
  2283     0296                     	;# 
  2284     0296                     	;# 
  2285     0297                     	;# 
  2286     0298                     	;# 
  2287     0298                     	;# 
  2288     0299                     	;# 
  2289     0299                     	;# 
  2290     029A                     	;# 
  2291     029B                     	;# 
  2292     029C                     	;# 
  2293     029C                     	;# 
  2294     029D                     	;# 
  2295     030C                     	;# 
  2296     030C                     	;# 
  2297     030D                     	;# 
  2298     030E                     	;# 
  2299     030F                     	;# 
  2300     0310                     	;# 
  2301     0310                     	;# 
  2302     0311                     	;# 
  2303     0312                     	;# 
  2304     0313                     	;# 
  2305     0314                     	;# 
  2306     0314                     	;# 
  2307     0315                     	;# 
  2308     0316                     	;# 
  2309     0317                     	;# 
  2310     0318                     	;# 
  2311     0318                     	;# 
  2312     0319                     	;# 
  2313     031A                     	;# 
  2314     031B                     	;# 
  2315     031C                     	;# 
  2316     031C                     	;# 
  2317     031D                     	;# 
  2318     031E                     	;# 
  2319     031F                     	;# 
  2320     038C                     	;# 
  2321     038C                     	;# 
  2322     038D                     	;# 
  2323     038E                     	;# 
  2324     0390                     	;# 
  2325     0390                     	;# 
  2326     0391                     	;# 
  2327     0392                     	;# 
  2328     040C                     	;# 
  2329     040D                     	;# 
  2330     040E                     	;# 
  2331     040F                     	;# 
  2332     0410                     	;# 
  2333     0411                     	;# 
  2334     0416                     	;# 
  2335     0416                     	;# 
  2336     0417                     	;# 
  2337     0418                     	;# 
  2338     0418                     	;# 
  2339     0419                     	;# 
  2340     041A                     	;# 
  2341     041A                     	;# 
  2342     041B                     	;# 
  2343     041C                     	;# 
  2344     041C                     	;# 
  2345     041D                     	;# 
  2346     041E                     	;# 
  2347     041F                     	;# 
  2348     048C                     	;# 
  2349     048C                     	;# 
  2350     048D                     	;# 
  2351     048E                     	;# 
  2352     048F                     	;# 
  2353     048F                     	;# 
  2354     0490                     	;# 
  2355     0491                     	;# 
  2356     0492                     	;# 
  2357     0492                     	;# 
  2358     0493                     	;# 
  2359     0494                     	;# 
  2360     0495                     	;# 
  2361     0495                     	;# 
  2362     0496                     	;# 
  2363     0497                     	;# 
  2364     0498                     	;# 
  2365     0499                     	;# 
  2366     049A                     	;# 
  2367     049B                     	;# 
  2368     049C                     	;# 
  2369     049D                     	;# 
  2370     050C                     	;# 
  2371     050C                     	;# 
  2372     050D                     	;# 
  2373     050E                     	;# 
  2374     050F                     	;# 
  2375     050F                     	;# 
  2376     0510                     	;# 
  2377     0511                     	;# 
  2378     0512                     	;# 
  2379     0512                     	;# 
  2380     0513                     	;# 
  2381     0514                     	;# 
  2382     0515                     	;# 
  2383     0515                     	;# 
  2384     0516                     	;# 
  2385     0517                     	;# 
  2386     0518                     	;# 
  2387     0519                     	;# 
  2388     051A                     	;# 
  2389     051B                     	;# 
  2390     051C                     	;# 
  2391     051D                     	;# 
  2392     058C                     	;# 
  2393     058C                     	;# 
  2394     058D                     	;# 
  2395     058E                     	;# 
  2396     058F                     	;# 
  2397     058F                     	;# 
  2398     0590                     	;# 
  2399     0591                     	;# 
  2400     0592                     	;# 
  2401     0593                     	;# 
  2402     060C                     	;# 
  2403     060D                     	;# 
  2404     060E                     	;# 
  2405     060F                     	;# 
  2406     0610                     	;# 
  2407     0611                     	;# 
  2408     0612                     	;# 
  2409     0613                     	;# 
  2410     0614                     	;# 
  2411     0616                     	;# 
  2412     0617                     	;# 
  2413     0618                     	;# 
  2414     0619                     	;# 
  2415     061A                     	;# 
  2416     061B                     	;# 
  2417     061C                     	;# 
  2418     061D                     	;# 
  2419     061E                     	;# 
  2420     068C                     	;# 
  2421     068D                     	;# 
  2422     068E                     	;# 
  2423     068F                     	;# 
  2424     0690                     	;# 
  2425     0691                     	;# 
  2426     0692                     	;# 
  2427     0693                     	;# 
  2428     0694                     	;# 
  2429     070C                     	;# 
  2430     070D                     	;# 
  2431     070E                     	;# 
  2432     070F                     	;# 
  2433     0710                     	;# 
  2434     0711                     	;# 
  2435     0712                     	;# 
  2436     0713                     	;# 
  2437     0714                     	;# 
  2438     0716                     	;# 
  2439     0717                     	;# 
  2440     0718                     	;# 
  2441     0719                     	;# 
  2442     071A                     	;# 
  2443     071B                     	;# 
  2444     071C                     	;# 
  2445     071D                     	;# 
  2446     071E                     	;# 
  2447     0796                     	;# 
  2448     0797                     	;# 
  2449     0798                     	;# 
  2450     0799                     	;# 
  2451     079A                     	;# 
  2452     079B                     	;# 
  2453     080C                     	;# 
  2454     080D                     	;# 
  2455     080E                     	;# 
  2456     080F                     	;# 
  2457     0810                     	;# 
  2458     0811                     	;# 
  2459     0812                     	;# 
  2460     0813                     	;# 
  2461     0814                     	;# 
  2462     081A                     	;# 
  2463     081B                     	;# 
  2464     081C                     	;# 
  2465     081D                     	;# 
  2466     081E                     	;# 
  2467     081F                     	;# 
  2468     088C                     	;# 
  2469     088D                     	;# 
  2470     088E                     	;# 
  2471     088F                     	;# 
  2472     0890                     	;# 
  2473     0891                     	;# 
  2474     0892                     	;# 
  2475     0893                     	;# 
  2476     0895                     	;# 
  2477     0896                     	;# 
  2478     0897                     	;# 
  2479     0898                     	;# 
  2480     0899                     	;# 
  2481     089A                     	;# 
  2482     089B                     	;# 
  2483     090C                     	;# 
  2484     090E                     	;# 
  2485     090F                     	;# 
  2486     091F                     	;# 
  2487     098F                     	;# 
  2488     098F                     	;# 
  2489     0990                     	;# 
  2490     0991                     	;# 
  2491     0992                     	;# 
  2492     0993                     	;# 
  2493     0994                     	;# 
  2494     0995                     	;# 
  2495     0996                     	;# 
  2496     0997                     	;# 
  2497     0E0F                     	;# 
  2498     0E10                     	;# 
  2499     0E11                     	;# 
  2500     0E12                     	;# 
  2501     0E13                     	;# 
  2502     0E14                     	;# 
  2503     0E15                     	;# 
  2504     0E16                     	;# 
  2505     0E17                     	;# 
  2506     0E18                     	;# 
  2507     0E19                     	;# 
  2508     0E1A                     	;# 
  2509     0E1B                     	;# 
  2510     0E1C                     	;# 
  2511     0E1D                     	;# 
  2512     0E1E                     	;# 
  2513     0E1F                     	;# 
  2514     0E20                     	;# 
  2515     0E21                     	;# 
  2516     0E22                     	;# 
  2517     0E23                     	;# 
  2518     0E24                     	;# 
  2519     0E25                     	;# 
  2520     0E26                     	;# 
  2521     0E27                     	;# 
  2522     0E28                     	;# 
  2523     0E29                     	;# 
  2524     0E2A                     	;# 
  2525     0E2B                     	;# 
  2526     0E2C                     	;# 
  2527     0E2D                     	;# 
  2528     0E2E                     	;# 
  2529     0E2F                     	;# 
  2530     0E30                     	;# 
  2531     0E31                     	;# 
  2532     0E32                     	;# 
  2533     0E33                     	;# 
  2534     0E34                     	;# 
  2535     0E35                     	;# 
  2536     0E36                     	;# 
  2537     0E37                     	;# 
  2538     0E8F                     	;# 
  2539     0E90                     	;# 
  2540     0E91                     	;# 
  2541     0E92                     	;# 
  2542     0E93                     	;# 
  2543     0E94                     	;# 
  2544     0E95                     	;# 
  2545     0E96                     	;# 
  2546     0E97                     	;# 
  2547     0E9C                     	;# 
  2548     0E9D                     	;# 
  2549     0E9E                     	;# 
  2550     0EA1                     	;# 
  2551     0EA2                     	;# 
  2552     0EA3                     	;# 
  2553     0EA4                     	;# 
  2554     0EA5                     	;# 
  2555     0EA9                     	;# 
  2556     0EAA                     	;# 
  2557     0EAB                     	;# 
  2558     0EAC                     	;# 
  2559     0EB1                     	;# 
  2560     0EB2                     	;# 
  2561     0EB3                     	;# 
  2562     0EB8                     	;# 
  2563     0EB9                     	;# 
  2564     0EBA                     	;# 
  2565     0EBB                     	;# 
  2566     0EBC                     	;# 
  2567     0EBD                     	;# 
  2568     0EBE                     	;# 
  2569     0EC3                     	;# 
  2570     0EC5                     	;# 
  2571     0EC6                     	;# 
  2572     0EC7                     	;# 
  2573     0EC8                     	;# 
  2574     0EC9                     	;# 
  2575     0ECA                     	;# 
  2576     0ECB                     	;# 
  2577     0ECC                     	;# 
  2578     0F10                     	;# 
  2579     0F11                     	;# 
  2580     0F12                     	;# 
  2581     0F13                     	;# 
  2582     0F14                     	;# 
  2583     0F15                     	;# 
  2584     0F16                     	;# 
  2585     0F17                     	;# 
  2586     0F18                     	;# 
  2587     0F19                     	;# 
  2588     0F1A                     	;# 
  2589     0F1B                     	;# 
  2590     0F1C                     	;# 
  2591     0F1D                     	;# 
  2592     0F1E                     	;# 
  2593     0F1F                     	;# 
  2594     0F20                     	;# 
  2595     0F21                     	;# 
  2596     0F22                     	;# 
  2597     0F23                     	;# 
  2598     0F24                     	;# 
  2599     0F25                     	;# 
  2600     0F26                     	;# 
  2601     0F27                     	;# 
  2602     0F38                     	;# 
  2603     0F39                     	;# 
  2604     0F3A                     	;# 
  2605     0F3B                     	;# 
  2606     0F3C                     	;# 
  2607     0F3D                     	;# 
  2608     0F3E                     	;# 
  2609     0F3F                     	;# 
  2610     0F40                     	;# 
  2611     0F41                     	;# 
  2612     0F43                     	;# 
  2613     0F44                     	;# 
  2614     0F45                     	;# 
  2615     0F46                     	;# 
  2616     0F47                     	;# 
  2617     0F48                     	;# 
  2618     0F49                     	;# 
  2619     0F4A                     	;# 
  2620     0F4B                     	;# 
  2621     0F4C                     	;# 
  2622     0F4E                     	;# 
  2623     0F4F                     	;# 
  2624     0F50                     	;# 
  2625     0F51                     	;# 
  2626     0F52                     	;# 
  2627     0F53                     	;# 
  2628     0F54                     	;# 
  2629     0F55                     	;# 
  2630     0F56                     	;# 
  2631     0F57                     	;# 
  2632     0F65                     	;# 
  2633     0F68                     	;# 
  2634     0F69                     	;# 
  2635     0F6A                     	;# 
  2636     0F6B                     	;# 
  2637     0FE4                     	;# 
  2638     0FE5                     	;# 
  2639     0FE6                     	;# 
  2640     0FE7                     	;# 
  2641     0FE8                     	;# 
  2642     0FE9                     	;# 
  2643     0FEA                     	;# 
  2644     0FEB                     	;# 
  2645     0FED                     	;# 
  2646     0FEE                     	;# 
  2647     0FEF                     	;# 
  2648     0012                     _TRISB	set	18
  2649     000B                     _INTCON	set	11
  2650     001E                     _T0CON0	set	30
  2651     001F                     _T0CON1	set	31
  2652     011B                     _SP1BRG	set	283
  2653     0119                     _RC1REG	set	281
  2654     011A                     _TX1REG	set	282
  2655     011D                     _RC1STA	set	285
  2656     011E                     _TX1STA	set	286
  2657     011F                     _BAUD1CON	set	287
  2658     0719                     _PIE3	set	1817
  2659     0716                     _PIE0	set	1814
  2660     070C                     _PIR0	set	1804
  2661     0812                     _VREGCON	set	2066
  2662     090C                     _FVRCON	set	2316
  2663     0ECB                     _RXPPS	set	3787
  2664     0F1E                     _RB6PPS	set	3870
  2665     0F43                     _ANSELB	set	3907
  2666                           
  2667                           	psect	cinit
  2668     001B                     start_initialization:	
  2669                           ; #config settings
  2670                           
  2671     001B                     __initialization:
  2672                           
  2673                           ; Clear objects allocated to BANK0
  2674     001B  0020               	movlb	0	; select bank0
  2675     001C  01B6               	clrf	__pbssBANK0& (0+127)
  2676     001D  01B7               	clrf	(__pbssBANK0+1)& (0+127)
  2677     001E  01B8               	clrf	(__pbssBANK0+2)& (0+127)
  2678     001F  01B9               	clrf	(__pbssBANK0+3)& (0+127)
  2679     0020  01BA               	clrf	(__pbssBANK0+4)& (0+127)
  2680     0021  01BB               	clrf	(__pbssBANK0+5)& (0+127)
  2681     0022  01BC               	clrf	(__pbssBANK0+6)& (0+127)
  2682     0023  01BD               	clrf	(__pbssBANK0+7)& (0+127)
  2683     0024  01BE               	clrf	(__pbssBANK0+8)& (0+127)
  2684     0025  01BF               	clrf	(__pbssBANK0+9)& (0+127)
  2685     0026  01C0               	clrf	(__pbssBANK0+10)& (0+127)
  2686     0027  01C1               	clrf	(__pbssBANK0+11)& (0+127)
  2687     0028                     end_of_initialization:	
  2688                           ;End of C runtime variable initialization code
  2689                           
  2690     0028                     __end_of__initialization:
  2691     0028  107E               	bcf	int$flags,0	;clear compiler interrupt flag (level 1)
  2692     0029  0020               	movlb	0
  2693     002A  3181  2966         	ljmp	_main	;jump to C main() function
  2694                           
  2695                           	psect	bssBANK0
  2696     0036                     __pbssBANK0:
  2697     0036                     _UART:
  2698     0036                     	ds	10
  2699     0040                     _val:
  2700     0040                     	ds	2
  2701                           
  2702                           	psect	cstackCOMMON
  2703     0070                     __pcstackCOMMON:
  2704     0070                     ?_UART_ISR_Routine:
  2705     0070                     ??_UART_ISR_Routine:	
  2706                           ; 1 bytes @ 0x0
  2707                           
  2708     0070                     ?_main:	
  2709                           ; 1 bytes @ 0x0
  2710                           
  2711     0070                     ?_ISRs:	
  2712                           ; 1 bytes @ 0x0
  2713                           
  2714     0070                     ??_ISRs:	
  2715                           ; 1 bytes @ 0x0
  2716                           
  2717     0070                     ?_UART_Config_GPIO:	
  2718                           ; 1 bytes @ 0x0
  2719                           
  2720     0070                     ?_UART_Config_Clock:	
  2721                           ; 1 bytes @ 0x0
  2722                           
  2723     0070                     ?_UART_Config_Transmitter:	
  2724                           ; 1 bytes @ 0x0
  2725                           
  2726     0070                     ?_UART_Transmit_Byte:	
  2727                           ; 1 bytes @ 0x0
  2728                           
  2729     0070                     ?_UART_Struct_Init:	
  2730                           ; 1 bytes @ 0x0
  2731                           
  2732     0070                     ?_UART_Transmit_New_Line:	
  2733                           ; 1 bytes @ 0x0
  2734                           
  2735     0070                     ?_UART_Transmit_Number_Digits:	
  2736                           ; 1 bytes @ 0x0
  2737                           
  2738                           
  2739                           ; 1 bytes @ 0x0
  2740     0070                     	ds	1
  2741     0071                     ??_UART_Config_GPIO:
  2742     0071                     ??_UART_Config_Clock:	
  2743                           ; 1 bytes @ 0x1
  2744                           
  2745     0071                     ??_UART_Config_Transmitter:	
  2746                           ; 1 bytes @ 0x1
  2747                           
  2748     0071                     ??_UART_Transmit_Byte:	
  2749                           ; 1 bytes @ 0x1
  2750                           
  2751     0071                     ??_UART_Struct_Init:	
  2752                           ; 1 bytes @ 0x1
  2753                           
  2754     0071                     ?___lldiv:	
  2755                           ; 1 bytes @ 0x1
  2756                           
  2757     0071                     ?___llmod:	
  2758                           ; 4 bytes @ 0x1
  2759                           
  2760     0071                     UART_Transmit_Byte@val:	
  2761                           ; 4 bytes @ 0x1
  2762                           
  2763     0071                     ___lldiv@divisor:	
  2764                           ; 1 bytes @ 0x1
  2765                           
  2766     0071                     ___llmod@divisor:	
  2767                           ; 4 bytes @ 0x1
  2768                           
  2769                           
  2770                           ; 4 bytes @ 0x1
  2771     0071                     	ds	1
  2772     0072                     ??_UART_Transmit_New_Line:
  2773     0072                     ??_UART_Transmit_Number_Digits:	
  2774                           ; 1 bytes @ 0x2
  2775                           
  2776     0072                     UART_Struct_Init@i:	
  2777                           ; 1 bytes @ 0x2
  2778                           
  2779                           
  2780                           ; 1 bytes @ 0x2
  2781     0072                     	ds	1
  2782     0073                     UART_Transmit_Number_Digits@temp:
  2783                           
  2784                           ; 1 bytes @ 0x3
  2785     0073                     	ds	1
  2786     0074                     UART_Transmit_Number_Digits@i:
  2787                           
  2788                           ; 1 bytes @ 0x4
  2789     0074                     	ds	1
  2790     0075                     ___lldiv@dividend:
  2791     0075                     ___llmod@dividend:	
  2792                           ; 4 bytes @ 0x5
  2793                           
  2794                           
  2795                           ; 4 bytes @ 0x5
  2796     0075                     	ds	4
  2797     0079                     ??___lldiv:
  2798     0079                     ??___llmod:	
  2799                           ; 1 bytes @ 0x9
  2800                           
  2801                           
  2802                           ; 1 bytes @ 0x9
  2803     0079                     	ds	1
  2804     007A                     ??_UART_Init:
  2805     007A                     ___llmod@counter:	
  2806                           ; 1 bytes @ 0xA
  2807                           
  2808                           
  2809                           ; 1 bytes @ 0xA
  2810     007A                     	ds	1
  2811     007B                     ??_UART_Determine_Digit_Numbers:
  2812                           
  2813                           ; 1 bytes @ 0xB
  2814     007B                     	ds	1
  2815     007C                     UART_Determine_Digit_Numbers@i:
  2816                           
  2817                           ; 1 bytes @ 0xC
  2818     007C                     	ds	1
  2819     007D                     ??_UART_Transmit_Number_NL:
  2820     007D                     ??_UART_Transmit_Number:	
  2821                           ; 1 bytes @ 0xD
  2822                           
  2823                           
  2824                           	psect	cstackBANK0
  2825     0020                     __pcstackBANK0:	
  2826                           ; 1 bytes @ 0xD
  2827                           
  2828     0020                     ___lldiv@quotient:
  2829                           
  2830                           ; 4 bytes @ 0x0
  2831     0020                     	ds	4
  2832     0024                     ___lldiv@counter:
  2833                           
  2834                           ; 1 bytes @ 0x4
  2835     0024                     	ds	1
  2836     0025                     ?_UART_Config_BAUD_Rate:
  2837     0025                     ?_UART_Determine_Digit_Numbers:	
  2838                           ; 1 bytes @ 0x5
  2839                           
  2840     0025                     UART_Config_BAUD_Rate@baud_rate:	
  2841                           ; 1 bytes @ 0x5
  2842                           
  2843     0025                     UART_Determine_Digit_Numbers@num:	
  2844                           ; 4 bytes @ 0x5
  2845                           
  2846                           
  2847                           ; 4 bytes @ 0x5
  2848     0025                     	ds	4
  2849     0029                     ??_UART_Config_BAUD_Rate:
  2850     0029                     ?_UART_Transmit_Number:	
  2851                           ; 1 bytes @ 0x9
  2852                           
  2853     0029                     UART_Transmit_Number@num:	
  2854                           ; 1 bytes @ 0x9
  2855                           
  2856                           
  2857                           ; 4 bytes @ 0x9
  2858     0029                     	ds	4
  2859     002D                     ?_UART_Transmit_Number_NL:
  2860     002D                     UART_Config_BAUD_Rate@BRG_VAL:	
  2861                           ; 1 bytes @ 0xD
  2862                           
  2863     002D                     UART_Transmit_Number_NL@num:	
  2864                           ; 4 bytes @ 0xD
  2865                           
  2866                           
  2867                           ; 4 bytes @ 0xD
  2868     002D                     	ds	4
  2869     0031                     ?_UART_Init:
  2870     0031                     UART_Init@baud:	
  2871                           ; 1 bytes @ 0x11
  2872                           
  2873                           
  2874                           ; 4 bytes @ 0x11
  2875     0031                     	ds	4
  2876     0035                     ??_main:
  2877                           
  2878                           ; 1 bytes @ 0x15
  2879     0035                     	ds	1
  2880                           
  2881                           	psect	maintext
  2882     0166                     __pmaintext:	
  2883 ;;
  2884 ;;Main: autosize = 0, tempsize = 1, incstack = 0, save=0
  2885 ;;
  2886 ;; *************** function _main *****************
  2887 ;; Defined at:
  2888 ;;		line 19 in file "main.c"
  2889 ;; Parameters:    Size  Location     Type
  2890 ;;		None
  2891 ;; Auto vars:     Size  Location     Type
  2892 ;;		None
  2893 ;; Return value:  Size  Location     Type
  2894 ;;                  1    wreg      void 
  2895 ;; Registers used:
  2896 ;;		wreg, fsr1l, fsr1h, status,2, status,0, pclath, cstack
  2897 ;; Tracked objects:
  2898 ;;		On entry : B1F/0
  2899 ;;		On exit  : 0/0
  2900 ;;		Unchanged: 0/0
  2901 ;; Data sizes:     COMMON   BANK0   BANK1   BANK2   BANK3   BANK4   BANK5   BANK6   BANK7   BANK8   BANK9  BANK10  BANK1
      +1  BANK12  BANK13  BANK14  BANK15  BANK16  BANK17  BANK18  BANK19  BANK20  BANK21  BANK22  BANK23  BANK24  BANK25
  2902 ;;      Params:         0       0       0       0       0       0       0       0       0       0       0       0       
      +0       0       0       0       0       0       0       0       0       0       0       0       0       0       0
  2903 ;;      Locals:         0       0       0       0       0       0       0       0       0       0       0       0       
      +0       0       0       0       0       0       0       0       0       0       0       0       0       0       0
  2904 ;;      Temps:          0       1       0       0       0       0       0       0       0       0       0       0       
      +0       0       0       0       0       0       0       0       0       0       0       0       0       0       0
  2905 ;;      Totals:         0       1       0       0       0       0       0       0       0       0       0       0       
      +0       0       0       0       0       0       0       0       0       0       0       0       0       0       0
  2906 ;;Total ram usage:        1 bytes
  2907 ;; Hardware stack levels required when called: 6
  2908 ;; This function calls:
  2909 ;;		_UART_Init
  2910 ;;		_UART_Transmit_Number_NL
  2911 ;; This function is called by:
  2912 ;;		Startup code after reset
  2913 ;; This function uses a non-reentrant model
  2914 ;;
  2915                           
  2916     0166                     _main:	
  2917                           ;psect for function _main
  2918                           
  2919     0166                     l1278:	
  2920                           ;incstack = 0
  2921                           ; Regs used in _main: [wreg+fsr1l+fsr1h+status,2+status,0+pclath+cstack]
  2922                           
  2923                           
  2924                           ;main.c: 21: UART_Init(115200);
  2925     0166  3000               	movlw	0
  2926     0167  0020               	movlb	0	; select bank0
  2927     0168  00B4               	movwf	UART_Init@baud+3
  2928     0169  3001               	movlw	1
  2929     016A  00B3               	movwf	UART_Init@baud+2
  2930     016B  30C2               	movlw	194
  2931     016C  00B2               	movwf	UART_Init@baud+1
  2932     016D  3000               	movlw	0
  2933     016E  00B1               	movwf	UART_Init@baud
  2934     016F  3181  21DC  3181   	fcall	_UART_Init
  2935     0172                     l1280:
  2936                           
  2937                           ;main.c: 23: T0CON1 = (4<<5);
  2938     0172  3080               	movlw	128
  2939     0173  0020               	movlb	0	; select bank0
  2940     0174  009F               	movwf	31	;volatile
  2941     0175                     l1282:
  2942                           
  2943                           ;main.c: 24: T0CON1|= (1<<4);
  2944     0175  161F               	bsf	31,4	;volatile
  2945     0176                     l1284:
  2946                           
  2947                           ;main.c: 25: T0CON1|= (7<<0);
  2948     0176  3007               	movlw	7
  2949     0177  00B5               	movwf	??_main
  2950     0178  0835               	movf	??_main,w
  2951     0179  049F               	iorwf	31,f	;volatile
  2952     017A                     l1286:
  2953                           
  2954                           ;main.c: 26: T0CON0 = (1<<7);
  2955     017A  3080               	movlw	128
  2956     017B  009E               	movwf	30	;volatile
  2957     017C                     l1288:
  2958                           
  2959                           ;main.c: 27: PIR0 &=~(1<<5);
  2960     017C  30DF               	movlw	223
  2961     017D  00B5               	movwf	??_main
  2962     017E  0835               	movf	??_main,w
  2963     017F  002E               	movlb	14	; select bank14
  2964     0180  058C               	andwf	12,f	;volatile
  2965     0181                     l1290:
  2966                           
  2967                           ;main.c: 28: PIE0 |= (1<<5);
  2968     0181  1696               	bsf	22,5	;volatile
  2969     0182                     l1292:
  2970                           
  2971                           ;main.c: 29: INTCON|= (1<<6);
  2972     0182  170B               	bsf	11,6	;volatile
  2973     0183                     l1294:
  2974                           
  2975                           ;main.c: 30: INTCON|= (1<<7);
  2976     0183  178B               	bsf	11,7	;volatile
  2977     0184                     l1296:
  2978                           
  2979                           ;main.c: 31: VREGCON|=(1<<1);
  2980     0184  0030               	movlb	16	; select bank16
  2981     0185  1492               	bsf	18,1	;volatile
  2982     0186                     l1298:
  2983                           
  2984                           ;main.c: 32: FVRCON = 0;
  2985     0186  0032               	movlb	18	; select bank18
  2986     0187  018C               	clrf	12	;volatile
  2987     0188                     l1300:
  2988                           
  2989                           ;main.c: 36: UART_Transmit_Number_NL(val);
  2990     0188  0020               	movlb	0	; select bank0
  2991     0189  0840               	movf	_val,w	;volatile
  2992     018A  00AD               	movwf	UART_Transmit_Number_NL@num
  2993     018B  0841               	movf	_val+1,w	;volatile
  2994     018C  00AE               	movwf	UART_Transmit_Number_NL@num+1
  2995     018D  01AF               	clrf	UART_Transmit_Number_NL@num+2
  2996     018E  01B0               	clrf	UART_Transmit_Number_NL@num+3
  2997     018F  3182  220A  3181   	fcall	_UART_Transmit_Number_NL
  2998     0192                     l1302:
  2999                           
  3000                           ;main.c: 37: __nop();
  3001     0192  0000               	nop
  3002     0193                     l1304:
  3003                           
  3004                           ;main.c: 38: __nop();
  3005     0193  0000               	nop
  3006     0194                     l1306:
  3007                           
  3008                           ;main.c: 39: __nop();
  3009     0194  0000               	nop
  3010     0195  0063               	sleep	;# 
  3011     0196  2988               	goto	l1300
  3012     0197  3180  2819         	ljmp	start
  3013     0199                     __end_of_main:
  3014                           
  3015                           	psect	text1
  3016     020A                     __ptext1:	
  3017 ;; *************** function _UART_Transmit_Number_NL *****************
  3018 ;; Defined at:
  3019 ;;		line 294 in file "uart.c"
  3020 ;; Parameters:    Size  Location     Type
  3021 ;;  num             4   13[BANK0 ] long 
  3022 ;; Auto vars:     Size  Location     Type
  3023 ;;		None
  3024 ;; Return value:  Size  Location     Type
  3025 ;;                  1    wreg      void 
  3026 ;; Registers used:
  3027 ;;		wreg, fsr1l, fsr1h, status,2, status,0, pclath, cstack
  3028 ;; Tracked objects:
  3029 ;;		On entry : 0/0
  3030 ;;		On exit  : 0/0
  3031 ;;		Unchanged: 0/0
  3032 ;; Data sizes:     COMMON   BANK0   BANK1   BANK2   BANK3   BANK4   BANK5   BANK6   BANK7   BANK8   BANK9  BANK10  BANK1
      +1  BANK12  BANK13  BANK14  BANK15  BANK16  BANK17  BANK18  BANK19  BANK20  BANK21  BANK22  BANK23  BANK24  BANK25
  3033 ;;      Params:         0       4       0       0       0       0       0       0       0       0       0       0       
      +0       0       0       0       0       0       0       0       0       0       0       0       0       0       0
  3034 ;;      Locals:         0       0       0       0       0       0       0       0       0       0       0       0       
      +0       0       0       0       0       0       0       0       0       0       0       0       0       0       0
  3035 ;;      Temps:          0       0       0       0       0       0       0       0       0       0       0       0       
      +0       0       0       0       0       0       0       0       0       0       0       0       0       0       0
  3036 ;;      Totals:         0       4       0       0       0       0       0       0       0       0       0       0       
      +0       0       0       0       0       0       0       0       0       0       0       0       0       0       0
  3037 ;;Total ram usage:        4 bytes
  3038 ;; Hardware stack levels used: 1
  3039 ;; Hardware stack levels required when called: 5
  3040 ;; This function calls:
  3041 ;;		_UART_Transmit_New_Line
  3042 ;;		_UART_Transmit_Number
  3043 ;; This function is called by:
  3044 ;;		_main
  3045 ;; This function uses a non-reentrant model
  3046 ;;
  3047                           
  3048     020A                     _UART_Transmit_Number_NL:	
  3049                           ;psect for function _UART_Transmit_Number_NL
  3050                           
  3051     020A                     l1264:	
  3052                           ;incstack = 0
  3053                           ; Regs used in _UART_Transmit_Number_NL: [wreg+fsr1l+fsr1h+status,2+status,0+pclath+csta
      +                          ck]
  3054                           
  3055                           
  3056                           ;uart.c: 295: UART_Transmit_Number(num);
  3057     020A  0020               	movlb	0	; select bank0
  3058     020B  0830               	movf	UART_Transmit_Number_NL@num+3,w
  3059     020C  00AC               	movwf	UART_Transmit_Number@num+3
  3060     020D  082F               	movf	UART_Transmit_Number_NL@num+2,w
  3061     020E  00AB               	movwf	UART_Transmit_Number@num+2
  3062     020F  082E               	movf	UART_Transmit_Number_NL@num+1,w
  3063     0210  00AA               	movwf	UART_Transmit_Number@num+1
  3064     0211  082D               	movf	UART_Transmit_Number_NL@num,w
  3065     0212  00A9               	movwf	UART_Transmit_Number@num
  3066     0213  3181  2199  3182   	fcall	_UART_Transmit_Number
  3067     0216                     l1266:
  3068                           
  3069                           ;uart.c: 296: UART_Transmit_New_Line();
  3070     0216  3182  2227  3182   	fcall	_UART_Transmit_New_Line
  3071     0219                     l160:
  3072     0219  0008               	return
  3073     021A                     __end_of_UART_Transmit_Number_NL:
  3074                           
  3075                           	psect	text2
  3076     0199                     __ptext2:	
  3077 ;; *************** function _UART_Transmit_Number *****************
  3078 ;; Defined at:
  3079 ;;		line 288 in file "uart.c"
  3080 ;; Parameters:    Size  Location     Type
  3081 ;;  num             4    9[BANK0 ] long 
  3082 ;; Auto vars:     Size  Location     Type
  3083 ;;		None
  3084 ;; Return value:  Size  Location     Type
  3085 ;;                  1    wreg      void 
  3086 ;; Registers used:
  3087 ;;		wreg, fsr1l, fsr1h, status,2, status,0, pclath, cstack
  3088 ;; Tracked objects:
  3089 ;;		On entry : 0/0
  3090 ;;		On exit  : 0/0
  3091 ;;		Unchanged: 0/0
  3092 ;; Data sizes:     COMMON   BANK0   BANK1   BANK2   BANK3   BANK4   BANK5   BANK6   BANK7   BANK8   BANK9  BANK10  BANK1
      +1  BANK12  BANK13  BANK14  BANK15  BANK16  BANK17  BANK18  BANK19  BANK20  BANK21  BANK22  BANK23  BANK24  BANK25
  3093 ;;      Params:         0       4       0       0       0       0       0       0       0       0       0       0       
      +0       0       0       0       0       0       0       0       0       0       0       0       0       0       0
  3094 ;;      Locals:         0       0       0       0       0       0       0       0       0       0       0       0       
      +0       0       0       0       0       0       0       0       0       0       0       0       0       0       0
  3095 ;;      Temps:          0       0       0       0       0       0       0       0       0       0       0       0       
      +0       0       0       0       0       0       0       0       0       0       0       0       0       0       0
  3096 ;;      Totals:         0       4       0       0       0       0       0       0       0       0       0       0       
      +0       0       0       0       0       0       0       0       0       0       0       0       0       0       0
  3097 ;;Total ram usage:        4 bytes
  3098 ;; Hardware stack levels used: 1
  3099 ;; Hardware stack levels required when called: 4
  3100 ;; This function calls:
  3101 ;;		_UART_Determine_Digit_Numbers
  3102 ;;		_UART_Transmit_Byte
  3103 ;;		_UART_Transmit_Number_Digits
  3104 ;; This function is called by:
  3105 ;;		_UART_Transmit_Number_NL
  3106 ;;		_UART_Transmit_Number_SP
  3107 ;; This function uses a non-reentrant model
  3108 ;;
  3109                           
  3110     0199                     _UART_Transmit_Number:	
  3111                           ;psect for function _UART_Transmit_Number
  3112                           
  3113     0199                     l1244:	
  3114                           ;incstack = 0
  3115                           ; Regs used in _UART_Transmit_Number: [wreg+fsr1l+fsr1h+status,2+status,0+pclath+cstack]
  3116                           
  3117                           
  3118                           ;uart.c: 289: if(num<0){UART_Transmit_Byte('-');num=-num;}
  3119     0199  0020               	movlb	0	; select bank0
  3120     019A  1FAC               	btfss	UART_Transmit_Number@num+3,7
  3121     019B  299D               	goto	u561
  3122     019C  299E               	goto	u560
  3123     019D                     u561:
  3124     019D  29AE               	goto	l1250
  3125     019E                     u560:
  3126     019E                     l1246:
  3127     019E  302D               	movlw	45
  3128     019F  3182  2230  3181   	fcall	_UART_Transmit_Byte
  3129     01A2                     l1248:
  3130     01A2  0020               	movlb	0	; select bank0
  3131     01A3  09A9               	comf	UART_Transmit_Number@num,f
  3132     01A4  09AA               	comf	UART_Transmit_Number@num+1,f
  3133     01A5  09AB               	comf	UART_Transmit_Number@num+2,f
  3134     01A6  09AC               	comf	UART_Transmit_Number@num+3,f
  3135     01A7  0AA9               	incf	UART_Transmit_Number@num,f
  3136     01A8  1903               	skipnz
  3137     01A9  0AAA               	incf	UART_Transmit_Number@num+1,f
  3138     01AA  1903               	skipnz
  3139     01AB  0AAB               	incf	UART_Transmit_Number@num+2,f
  3140     01AC  1903               	skipnz
  3141     01AD  0AAC               	incf	UART_Transmit_Number@num+3,f
  3142     01AE                     l1250:
  3143                           
  3144                           ;uart.c: 290: UART_Determine_Digit_Numbers((uint32_t)num);
  3145     01AE  082C               	movf	UART_Transmit_Number@num+3,w
  3146     01AF  00A8               	movwf	UART_Determine_Digit_Numbers@num+3
  3147     01B0  082B               	movf	UART_Transmit_Number@num+2,w
  3148     01B1  00A7               	movwf	UART_Determine_Digit_Numbers@num+2
  3149     01B2  082A               	movf	UART_Transmit_Number@num+1,w
  3150     01B3  00A6               	movwf	UART_Determine_Digit_Numbers@num+1
  3151     01B4  0829               	movf	UART_Transmit_Number@num,w
  3152     01B5  00A5               	movwf	UART_Determine_Digit_Numbers@num
  3153     01B6  3180  2087  3181   	fcall	_UART_Determine_Digit_Numbers
  3154     01B9                     l1252:
  3155                           
  3156                           ;uart.c: 291: UART_Transmit_Number_Digits();
  3157     01B9  3181  21BD  3181   	fcall	_UART_Transmit_Number_Digits
  3158     01BC                     l157:
  3159     01BC  0008               	return
  3160     01BD                     __end_of_UART_Transmit_Number:
  3161                           
  3162                           	psect	text3
  3163     01BD                     __ptext3:	
  3164 ;; *************** function _UART_Transmit_Number_Digits *****************
  3165 ;; Defined at:
  3166 ;;		line 278 in file "uart.c"
  3167 ;; Parameters:    Size  Location     Type
  3168 ;;		None
  3169 ;; Auto vars:     Size  Location     Type
  3170 ;;  temp            1    3[COMMON] unsigned char 
  3171 ;;  i               1    4[COMMON] unsigned char 
  3172 ;; Return value:  Size  Location     Type
  3173 ;;                  1    wreg      void 
  3174 ;; Registers used:
  3175 ;;		wreg, fsr1l, fsr1h, status,2, status,0, pclath, cstack
  3176 ;; Tracked objects:
  3177 ;;		On entry : 0/0
  3178 ;;		On exit  : 0/0
  3179 ;;		Unchanged: 0/0
  3180 ;; Data sizes:     COMMON   BANK0   BANK1   BANK2   BANK3   BANK4   BANK5   BANK6   BANK7   BANK8   BANK9  BANK10  BANK1
      +1  BANK12  BANK13  BANK14  BANK15  BANK16  BANK17  BANK18  BANK19  BANK20  BANK21  BANK22  BANK23  BANK24  BANK25
  3181 ;;      Params:         0       0       0       0       0       0       0       0       0       0       0       0       
      +0       0       0       0       0       0       0       0       0       0       0       0       0       0       0
  3182 ;;      Locals:         2       0       0       0       0       0       0       0       0       0       0       0       
      +0       0       0       0       0       0       0       0       0       0       0       0       0       0       0
  3183 ;;      Temps:          1       0       0       0       0       0       0       0       0       0       0       0       
      +0       0       0       0       0       0       0       0       0       0       0       0       0       0       0
  3184 ;;      Totals:         3       0       0       0       0       0       0       0       0       0       0       0       
      +0       0       0       0       0       0       0       0       0       0       0       0       0       0       0
  3185 ;;Total ram usage:        3 bytes
  3186 ;; Hardware stack levels used: 1
  3187 ;; Hardware stack levels required when called: 3
  3188 ;; This function calls:
  3189 ;;		_UART_Transmit_Byte
  3190 ;; This function is called by:
  3191 ;;		_UART_Transmit_Number
  3192 ;; This function uses a non-reentrant model
  3193 ;;
  3194                           
  3195     01BD                     _UART_Transmit_Number_Digits:	
  3196                           ;psect for function _UART_Transmit_Number_Digits
  3197                           
  3198     01BD                     l1188:	
  3199                           ;incstack = 0
  3200                           ; Regs used in _UART_Transmit_Number_Digits: [wreg+fsr1l+fsr1h+status,2+status,0+pclath+
      +                          cstack]
  3201                           
  3202                           
  3203                           ;uart.c: 279: for(uint8_t i=UART.InputNumberDigits; i>0; i--){
  3204     01BD  0020               	movlb	0	; select bank0
  3205     01BE  083F               	movf	_UART+9,w	;volatile
  3206     01BF  00F4               	movwf	UART_Transmit_Number_Digits@i
  3207     01C0                     l1190:
  3208     01C0  0874               	movf	UART_Transmit_Number_Digits@i,w
  3209     01C1  1D03               	btfss	3,2
  3210     01C2  29C4               	goto	u531
  3211     01C3  29C5               	goto	u530
  3212     01C4                     u531:
  3213     01C4  29C6               	goto	l1194
  3214     01C5                     u530:
  3215     01C5  29DB               	goto	l153
  3216     01C6                     l1194:
  3217                           
  3218                           ;uart.c: 280: uint8_t temp=i;
  3219     01C6  0874               	movf	UART_Transmit_Number_Digits@i,w
  3220     01C7  00F3               	movwf	UART_Transmit_Number_Digits@temp
  3221     01C8                     l1196:
  3222                           
  3223                           ;uart.c: 281: temp-=1;
  3224     01C8  3001               	movlw	1
  3225     01C9  02F3               	subwf	UART_Transmit_Number_Digits@temp,f
  3226     01CA                     l1198:
  3227                           
  3228                           ;uart.c: 282: temp=UART.Digits[temp];
  3229     01CA  0873               	movf	UART_Transmit_Number_Digits@temp,w
  3230     01CB  3E37               	addlw	(low ((_UART| 0+1)))& (0+255)
  3231     01CC  0086               	movwf	6
  3232     01CD  0187               	clrf	7
  3233     01CE  0801               	movf	1,w
  3234     01CF  00F3               	movwf	UART_Transmit_Number_Digits@temp
  3235     01D0                     l1200:
  3236                           
  3237                           ;uart.c: 283: temp+=48;
  3238     01D0  3030               	movlw	48
  3239     01D1  00F2               	movwf	??_UART_Transmit_Number_Digits
  3240     01D2  0872               	movf	??_UART_Transmit_Number_Digits,w
  3241     01D3  07F3               	addwf	UART_Transmit_Number_Digits@temp,f
  3242     01D4                     l1202:
  3243                           
  3244                           ;uart.c: 284: UART_Transmit_Byte(temp);
  3245     01D4  0873               	movf	UART_Transmit_Number_Digits@temp,w
  3246     01D5  3182  2230  3181   	fcall	_UART_Transmit_Byte
  3247     01D8                     l1204:
  3248     01D8  3001               	movlw	1
  3249     01D9  02F4               	subwf	UART_Transmit_Number_Digits@i,f
  3250     01DA  29C0               	goto	l1190
  3251     01DB                     l153:
  3252     01DB  0008               	return
  3253     01DC                     __end_of_UART_Transmit_Number_Digits:
  3254                           
  3255                           	psect	text4
  3256     0087                     __ptext4:	
  3257 ;; *************** function _UART_Determine_Digit_Numbers *****************
  3258 ;; Defined at:
  3259 ;;		line 263 in file "uart.c"
  3260 ;; Parameters:    Size  Location     Type
  3261 ;;  num             4    5[BANK0 ] unsigned long 
  3262 ;; Auto vars:     Size  Location     Type
  3263 ;;  i               1   12[COMMON] unsigned char 
  3264 ;; Return value:  Size  Location     Type
  3265 ;;                  1    wreg      void 
  3266 ;; Registers used:
  3267 ;;		wreg, fsr1l, fsr1h, status,2, status,0, pclath, cstack
  3268 ;; Tracked objects:
  3269 ;;		On entry : 0/0
  3270 ;;		On exit  : 0/0
  3271 ;;		Unchanged: 0/0
  3272 ;; Data sizes:     COMMON   BANK0   BANK1   BANK2   BANK3   BANK4   BANK5   BANK6   BANK7   BANK8   BANK9  BANK10  BANK1
      +1  BANK12  BANK13  BANK14  BANK15  BANK16  BANK17  BANK18  BANK19  BANK20  BANK21  BANK22  BANK23  BANK24  BANK25
  3273 ;;      Params:         0       4       0       0       0       0       0       0       0       0       0       0       
      +0       0       0       0       0       0       0       0       0       0       0       0       0       0       0
  3274 ;;      Locals:         1       0       0       0       0       0       0       0       0       0       0       0       
      +0       0       0       0       0       0       0       0       0       0       0       0       0       0       0
  3275 ;;      Temps:          1       0       0       0       0       0       0       0       0       0       0       0       
      +0       0       0       0       0       0       0       0       0       0       0       0       0       0       0
  3276 ;;      Totals:         2       4       0       0       0       0       0       0       0       0       0       0       
      +0       0       0       0       0       0       0       0       0       0       0       0       0       0       0
  3277 ;;Total ram usage:        6 bytes
  3278 ;; Hardware stack levels used: 1
  3279 ;; Hardware stack levels required when called: 3
  3280 ;; This function calls:
  3281 ;;		___lldiv
  3282 ;;		___llmod
  3283 ;; This function is called by:
  3284 ;;		_UART_Transmit_Number
  3285 ;; This function uses a non-reentrant model
  3286 ;;
  3287                           
  3288     0087                     _UART_Determine_Digit_Numbers:	
  3289                           ;psect for function _UART_Determine_Digit_Numbers
  3290                           
  3291     0087                     l1170:	
  3292                           ;incstack = 0
  3293                           ; Regs used in _UART_Determine_Digit_Numbers: [wreg+fsr1l+fsr1h+status,2+status,0+pclath
      +                          +cstack]
  3294                           
  3295                           
  3296                           ;uart.c: 264: uint8_t i=0;
  3297     0087  01FC               	clrf	UART_Determine_Digit_Numbers@i
  3298     0088                     l1172:
  3299                           
  3300                           ;uart.c: 265: if(num==0){
  3301     0088  0020               	movlb	0	; select bank0
  3302     0089  0828               	movf	UART_Determine_Digit_Numbers@num+3,w
  3303     008A  0427               	iorwf	UART_Determine_Digit_Numbers@num+2,w
  3304     008B  0426               	iorwf	UART_Determine_Digit_Numbers@num+1,w
  3305     008C  0425               	iorwf	UART_Determine_Digit_Numbers@num,w
  3306     008D  1D03               	skipz
  3307     008E  2890               	goto	u511
  3308     008F  2891               	goto	u510
  3309     0090                     u511:
  3310     0090  28CF               	goto	l1184
  3311     0091                     u510:
  3312     0091                     l1174:
  3313                           
  3314                           ;uart.c: 266: UART.Digits[0]=0;
  3315     0091  01B7               	clrf	_UART+1	;volatile
  3316     0092                     l1176:
  3317                           
  3318                           ;uart.c: 267: UART.InputNumberDigits=1;
  3319     0092  3001               	movlw	1
  3320     0093  00BF               	movwf	_UART+9	;volatile
  3321                           
  3322                           ;uart.c: 268: }else{
  3323     0094  28D9               	goto	l148
  3324     0095                     l1178:
  3325                           
  3326                           ;uart.c: 270: UART.Digits[i]=num%10;
  3327     0095  087C               	movf	UART_Determine_Digit_Numbers@i,w
  3328     0096  3E37               	addlw	(low ((_UART| 0+1)))& (0+255)
  3329     0097  0086               	movwf	6
  3330     0098  0187               	clrf	7
  3331     0099  3000               	movlw	0
  3332     009A  00F4               	movwf	___llmod@divisor+3
  3333     009B  3000               	movlw	0
  3334     009C  00F3               	movwf	___llmod@divisor+2
  3335     009D  3000               	movlw	0
  3336     009E  00F2               	movwf	___llmod@divisor+1
  3337     009F  300A               	movlw	10
  3338     00A0  00F1               	movwf	___llmod@divisor
  3339     00A1  0828               	movf	UART_Determine_Digit_Numbers@num+3,w
  3340     00A2  00F8               	movwf	___llmod@dividend+3
  3341     00A3  0827               	movf	UART_Determine_Digit_Numbers@num+2,w
  3342     00A4  00F7               	movwf	___llmod@dividend+2
  3343     00A5  0826               	movf	UART_Determine_Digit_Numbers@num+1,w
  3344     00A6  00F6               	movwf	___llmod@dividend+1
  3345     00A7  0825               	movf	UART_Determine_Digit_Numbers@num,w
  3346     00A8  00F5               	movwf	___llmod@dividend
  3347     00A9  3180  20DA  3180   	fcall	___llmod
  3348     00AC  0871               	movf	?___llmod,w
  3349     00AD  0081               	movwf	1
  3350     00AE                     l1180:
  3351                           
  3352                           ;uart.c: 271: num/=10;
  3353     00AE  3000               	movlw	0
  3354     00AF  00F4               	movwf	___lldiv@divisor+3
  3355     00B0  3000               	movlw	0
  3356     00B1  00F3               	movwf	___lldiv@divisor+2
  3357     00B2  3000               	movlw	0
  3358     00B3  00F2               	movwf	___lldiv@divisor+1
  3359     00B4  300A               	movlw	10
  3360     00B5  00F1               	movwf	___lldiv@divisor
  3361     00B6  0020               	movlb	0	; select bank0
  3362     00B7  0828               	movf	UART_Determine_Digit_Numbers@num+3,w
  3363     00B8  00F8               	movwf	___lldiv@dividend+3
  3364     00B9  0827               	movf	UART_Determine_Digit_Numbers@num+2,w
  3365     00BA  00F7               	movwf	___lldiv@dividend+2
  3366     00BB  0826               	movf	UART_Determine_Digit_Numbers@num+1,w
  3367     00BC  00F6               	movwf	___lldiv@dividend+1
  3368     00BD  0825               	movf	UART_Determine_Digit_Numbers@num,w
  3369     00BE  00F5               	movwf	___lldiv@dividend
  3370     00BF  3180  202C  3180   	fcall	___lldiv
  3371     00C2  0874               	movf	?___lldiv+3,w
  3372     00C3  0020               	movlb	0	; select bank0
  3373     00C4  00A8               	movwf	UART_Determine_Digit_Numbers@num+3
  3374     00C5  0873               	movf	?___lldiv+2,w
  3375     00C6  00A7               	movwf	UART_Determine_Digit_Numbers@num+2
  3376     00C7  0872               	movf	?___lldiv+1,w
  3377     00C8  00A6               	movwf	UART_Determine_Digit_Numbers@num+1
  3378     00C9  0871               	movf	?___lldiv,w
  3379     00CA  00A5               	movwf	UART_Determine_Digit_Numbers@num
  3380     00CB                     l1182:
  3381                           
  3382                           ;uart.c: 272: i++;
  3383     00CB  3001               	movlw	1
  3384     00CC  00FB               	movwf	??_UART_Determine_Digit_Numbers
  3385     00CD  087B               	movf	??_UART_Determine_Digit_Numbers,w
  3386     00CE  07FC               	addwf	UART_Determine_Digit_Numbers@i,f
  3387     00CF                     l1184:
  3388     00CF  0828               	movf	UART_Determine_Digit_Numbers@num+3,w
  3389     00D0  0427               	iorwf	UART_Determine_Digit_Numbers@num+2,w
  3390     00D1  0426               	iorwf	UART_Determine_Digit_Numbers@num+1,w
  3391     00D2  0425               	iorwf	UART_Determine_Digit_Numbers@num,w
  3392     00D3  1D03               	skipz
  3393     00D4  28D6               	goto	u521
  3394     00D5  28D7               	goto	u520
  3395     00D6                     u521:
  3396     00D6  2895               	goto	l1178
  3397     00D7                     u520:
  3398     00D7                     l1186:
  3399                           
  3400                           ;uart.c: 273: };uart.c: 274: UART.InputNumberDigits=i;
  3401     00D7  087C               	movf	UART_Determine_Digit_Numbers@i,w
  3402     00D8  00BF               	movwf	_UART+9	;volatile
  3403     00D9                     l148:
  3404     00D9  0008               	return
  3405     00DA                     __end_of_UART_Determine_Digit_Numbers:
  3406                           
  3407                           	psect	text5
  3408     00DA                     __ptext5:	
  3409 ;; *************** function ___llmod *****************
  3410 ;; Defined at:
  3411 ;;		line 5 in file "C:\Program Files\Microchip\xc8\v2.40\pic\sources\c90\common\llmod.c"
  3412 ;; Parameters:    Size  Location     Type
  3413 ;;  divisor         4    1[COMMON] unsigned long 
  3414 ;;  dividend        4    5[COMMON] unsigned long 
  3415 ;; Auto vars:     Size  Location     Type
  3416 ;;  counter         1   10[COMMON] unsigned char 
  3417 ;; Return value:  Size  Location     Type
  3418 ;;                  4    1[COMMON] unsigned long 
  3419 ;; Registers used:
  3420 ;;		wreg, status,2, status,0
  3421 ;; Tracked objects:
  3422 ;;		On entry : 0/0
  3423 ;;		On exit  : 0/0
  3424 ;;		Unchanged: 0/0
  3425 ;; Data sizes:     COMMON   BANK0   BANK1   BANK2   BANK3   BANK4   BANK5   BANK6   BANK7   BANK8   BANK9  BANK10  BANK1
      +1  BANK12  BANK13  BANK14  BANK15  BANK16  BANK17  BANK18  BANK19  BANK20  BANK21  BANK22  BANK23  BANK24  BANK25
  3426 ;;      Params:         8       0       0       0       0       0       0       0       0       0       0       0       
      +0       0       0       0       0       0       0       0       0       0       0       0       0       0       0
  3427 ;;      Locals:         1       0       0       0       0       0       0       0       0       0       0       0       
      +0       0       0       0       0       0       0       0       0       0       0       0       0       0       0
  3428 ;;      Temps:          1       0       0       0       0       0       0       0       0       0       0       0       
      +0       0       0       0       0       0       0       0       0       0       0       0       0       0       0
  3429 ;;      Totals:        10       0       0       0       0       0       0       0       0       0       0       0       
      +0       0       0       0       0       0       0       0       0       0       0       0       0       0       0
  3430 ;;Total ram usage:       10 bytes
  3431 ;; Hardware stack levels used: 1
  3432 ;; Hardware stack levels required when called: 2
  3433 ;; This function calls:
  3434 ;;		Nothing
  3435 ;; This function is called by:
  3436 ;;		_UART_Determine_Digit_Numbers
  3437 ;; This function uses a non-reentrant model
  3438 ;;
  3439                           
  3440     00DA                     ___llmod:	
  3441                           ;psect for function ___llmod
  3442                           
  3443     00DA                     l1150:	
  3444                           ;incstack = 0
  3445                           ; Regs used in ___llmod: [wreg+status,2+status,0]
  3446                           
  3447     00DA  0874               	movf	___llmod@divisor+3,w
  3448     00DB  0473               	iorwf	___llmod@divisor+2,w
  3449     00DC  0472               	iorwf	___llmod@divisor+1,w
  3450     00DD  0471               	iorwf	___llmod@divisor,w
  3451     00DE  1903               	skipnz
  3452     00DF  28E1               	goto	u451
  3453     00E0  28E2               	goto	u450
  3454     00E1                     u451:
  3455     00E1  291B               	goto	l1166
  3456     00E2                     u450:
  3457     00E2                     l1152:
  3458     00E2  01FA               	clrf	___llmod@counter
  3459     00E3  0AFA               	incf	___llmod@counter,f
  3460     00E4  28F0               	goto	l1156
  3461     00E5                     l1154:
  3462     00E5  3001               	movlw	1
  3463     00E6                     u465:
  3464     00E6  35F1               	lslf	___llmod@divisor,f
  3465     00E7  0DF2               	rlf	___llmod@divisor+1,f
  3466     00E8  0DF3               	rlf	___llmod@divisor+2,f
  3467     00E9  0DF4               	rlf	___llmod@divisor+3,f
  3468     00EA  0B89               	decfsz	9,f
  3469     00EB  28E6               	goto	u465
  3470     00EC  3001               	movlw	1
  3471     00ED  00F9               	movwf	??___llmod
  3472     00EE  0879               	movf	??___llmod,w
  3473     00EF  07FA               	addwf	___llmod@counter,f
  3474     00F0                     l1156:
  3475     00F0  1FF4               	btfss	___llmod@divisor+3,7
  3476     00F1  28F3               	goto	u471
  3477     00F2  28F4               	goto	u470
  3478     00F3                     u471:
  3479     00F3  28E5               	goto	l1154
  3480     00F4                     u470:
  3481     00F4                     l1158:
  3482     00F4  0874               	movf	___llmod@divisor+3,w
  3483     00F5  0278               	subwf	___llmod@dividend+3,w
  3484     00F6  1D03               	skipz
  3485     00F7  2902               	goto	u485
  3486     00F8  0873               	movf	___llmod@divisor+2,w
  3487     00F9  0277               	subwf	___llmod@dividend+2,w
  3488     00FA  1D03               	skipz
  3489     00FB  2902               	goto	u485
  3490     00FC  0872               	movf	___llmod@divisor+1,w
  3491     00FD  0276               	subwf	___llmod@dividend+1,w
  3492     00FE  1D03               	skipz
  3493     00FF  2902               	goto	u485
  3494     0100  0871               	movf	___llmod@divisor,w
  3495     0101  0275               	subwf	___llmod@dividend,w
  3496     0102                     u485:
  3497     0102  1C03               	skipc
  3498     0103  2905               	goto	u481
  3499     0104  2906               	goto	u480
  3500     0105                     u481:
  3501     0105  290E               	goto	l1162
  3502     0106                     u480:
  3503     0106                     l1160:
  3504     0106  0871               	movf	___llmod@divisor,w
  3505     0107  02F5               	subwf	___llmod@dividend,f
  3506     0108  0872               	movf	___llmod@divisor+1,w
  3507     0109  3BF6               	subwfb	___llmod@dividend+1,f
  3508     010A  0873               	movf	___llmod@divisor+2,w
  3509     010B  3BF7               	subwfb	___llmod@dividend+2,f
  3510     010C  0874               	movf	___llmod@divisor+3,w
  3511     010D  3BF8               	subwfb	___llmod@dividend+3,f
  3512     010E                     l1162:
  3513     010E  3001               	movlw	1
  3514     010F                     u495:
  3515     010F  36F4               	lsrf	___llmod@divisor+3,f
  3516     0110  0CF3               	rrf	___llmod@divisor+2,f
  3517     0111  0CF2               	rrf	___llmod@divisor+1,f
  3518     0112  0CF1               	rrf	___llmod@divisor,f
  3519     0113  0B89               	decfsz	9,f
  3520     0114  290F               	goto	u495
  3521     0115                     l1164:
  3522     0115  3001               	movlw	1
  3523     0116  02FA               	subwf	___llmod@counter,f
  3524     0117  1D03               	btfss	3,2
  3525     0118  291A               	goto	u501
  3526     0119  291B               	goto	u500
  3527     011A                     u501:
  3528     011A  28F4               	goto	l1158
  3529     011B                     u500:
  3530     011B                     l1166:
  3531     011B  0878               	movf	___llmod@dividend+3,w
  3532     011C  00F4               	movwf	?___llmod+3
  3533     011D  0877               	movf	___llmod@dividend+2,w
  3534     011E  00F3               	movwf	?___llmod+2
  3535     011F  0876               	movf	___llmod@dividend+1,w
  3536     0120  00F2               	movwf	?___llmod+1
  3537     0121  0875               	movf	___llmod@dividend,w
  3538     0122  00F1               	movwf	?___llmod
  3539     0123                     l546:
  3540     0123  0008               	return
  3541     0124                     __end_of___llmod:
  3542                           
  3543                           	psect	text6
  3544     0227                     __ptext6:	
  3545 ;; *************** function _UART_Transmit_New_Line *****************
  3546 ;; Defined at:
  3547 ;;		line 241 in file "uart.c"
  3548 ;; Parameters:    Size  Location     Type
  3549 ;;		None
  3550 ;; Auto vars:     Size  Location     Type
  3551 ;;		None
  3552 ;; Return value:  Size  Location     Type
  3553 ;;                  1    wreg      void 
  3554 ;; Registers used:
  3555 ;;		wreg, status,2, status,0, pclath, cstack
  3556 ;; Tracked objects:
  3557 ;;		On entry : 0/0
  3558 ;;		On exit  : 0/0
  3559 ;;		Unchanged: 0/0
  3560 ;; Data sizes:     COMMON   BANK0   BANK1   BANK2   BANK3   BANK4   BANK5   BANK6   BANK7   BANK8   BANK9  BANK10  BANK1
      +1  BANK12  BANK13  BANK14  BANK15  BANK16  BANK17  BANK18  BANK19  BANK20  BANK21  BANK22  BANK23  BANK24  BANK25
  3561 ;;      Params:         0       0       0       0       0       0       0       0       0       0       0       0       
      +0       0       0       0       0       0       0       0       0       0       0       0       0       0       0
  3562 ;;      Locals:         0       0       0       0       0       0       0       0       0       0       0       0       
      +0       0       0       0       0       0       0       0       0       0       0       0       0       0       0
  3563 ;;      Temps:          0       0       0       0       0       0       0       0       0       0       0       0       
      +0       0       0       0       0       0       0       0       0       0       0       0       0       0       0
  3564 ;;      Totals:         0       0       0       0       0       0       0       0       0       0       0       0       
      +0       0       0       0       0       0       0       0       0       0       0       0       0       0       0
  3565 ;;Total ram usage:        0 bytes
  3566 ;; Hardware stack levels used: 1
  3567 ;; Hardware stack levels required when called: 3
  3568 ;; This function calls:
  3569 ;;		_UART_Transmit_Byte
  3570 ;; This function is called by:
  3571 ;;		_UART_Transmit_Number_NL
  3572 ;;		_UART_Transmit_Text_NL
  3573 ;; This function uses a non-reentrant model
  3574 ;;
  3575                           
  3576     0227                     _UART_Transmit_New_Line:	
  3577                           ;psect for function _UART_Transmit_New_Line
  3578                           
  3579     0227                     l1242:	
  3580                           ;incstack = 0
  3581                           ; Regs used in _UART_Transmit_New_Line: [wreg+status,2+status,0+pclath+cstack]
  3582                           
  3583                           
  3584                           ;uart.c: 242: UART_Transmit_Byte('\r');
  3585     0227  300D               	movlw	13
  3586     0228  3182  2230  3182   	fcall	_UART_Transmit_Byte
  3587                           
  3588                           ;uart.c: 243: UART_Transmit_Byte('\n');
  3589     022B  300A               	movlw	10
  3590     022C  3182  2230  3182   	fcall	_UART_Transmit_Byte
  3591     022F                     l128:
  3592     022F  0008               	return
  3593     0230                     __end_of_UART_Transmit_New_Line:
  3594                           
  3595                           	psect	text7
  3596     0230                     __ptext7:	
  3597 ;; *************** function _UART_Transmit_Byte *****************
  3598 ;; Defined at:
  3599 ;;		line 131 in file "uart.c"
  3600 ;; Parameters:    Size  Location     Type
  3601 ;;  val             1    wreg     unsigned char 
  3602 ;; Auto vars:     Size  Location     Type
  3603 ;;  val             1    1[COMMON] unsigned char 
  3604 ;; Return value:  Size  Location     Type
  3605 ;;                  1    wreg      void 
  3606 ;; Registers used:
  3607 ;;		wreg
  3608 ;; Tracked objects:
  3609 ;;		On entry : 0/0
  3610 ;;		On exit  : 0/0
  3611 ;;		Unchanged: 0/0
  3612 ;; Data sizes:     COMMON   BANK0   BANK1   BANK2   BANK3   BANK4   BANK5   BANK6   BANK7   BANK8   BANK9  BANK10  BANK1
      +1  BANK12  BANK13  BANK14  BANK15  BANK16  BANK17  BANK18  BANK19  BANK20  BANK21  BANK22  BANK23  BANK24  BANK25
  3613 ;;      Params:         0       0       0       0       0       0       0       0       0       0       0       0       
      +0       0       0       0       0       0       0       0       0       0       0       0       0       0       0
  3614 ;;      Locals:         1       0       0       0       0       0       0       0       0       0       0       0       
      +0       0       0       0       0       0       0       0       0       0       0       0       0       0       0
  3615 ;;      Temps:          0       0       0       0       0       0       0       0       0       0       0       0       
      +0       0       0       0       0       0       0       0       0       0       0       0       0       0       0
  3616 ;;      Totals:         1       0       0       0       0       0       0       0       0       0       0       0       
      +0       0       0       0       0       0       0       0       0       0       0       0       0       0       0
  3617 ;;Total ram usage:        1 bytes
  3618 ;; Hardware stack levels used: 1
  3619 ;; Hardware stack levels required when called: 2
  3620 ;; This function calls:
  3621 ;;		Nothing
  3622 ;; This function is called by:
  3623 ;;		_UART_Transmit_New_Line
  3624 ;;		_UART_Transmit_Number_Digits
  3625 ;;		_UART_Transmit_Number
  3626 ;;		_UART_Transmit_Byte_Hex
  3627 ;;		_UART_Transmit_Byte_Bin
  3628 ;;		_UART_Transmit_Space
  3629 ;;		_UART_Transmit_Text
  3630 ;; This function uses a non-reentrant model
  3631 ;;
  3632                           
  3633     0230                     _UART_Transmit_Byte:	
  3634                           ;psect for function _UART_Transmit_Byte
  3635                           
  3636                           
  3637                           ;incstack = 0
  3638                           ; Regs used in _UART_Transmit_Byte: [wreg]
  3639                           ;UART_Transmit_Byte@val stored from wreg
  3640     0230  00F1               	movwf	UART_Transmit_Byte@val
  3641     0231                     l1124:
  3642                           
  3643                           ;uart.c: 132: TX1REG=val;
  3644     0231  0871               	movf	UART_Transmit_Byte@val,w
  3645     0232  0022               	movlb	2	; select bank2
  3646     0233  009A               	movwf	26	;volatile
  3647     0234                     l87:	
  3648                           ;uart.c: 133: while((TX1STA & (1<<1))==0);
  3649                           
  3650     0234  1C9E               	btfss	30,1	;volatile
  3651     0235  2A37               	goto	u371
  3652     0236  2A38               	goto	u370
  3653     0237                     u371:
  3654     0237  2A34               	goto	l87
  3655     0238                     u370:
  3656     0238                     l90:
  3657     0238  0008               	return
  3658     0239                     __end_of_UART_Transmit_Byte:
  3659                           
  3660                           	psect	text8
  3661     01DC                     __ptext8:	
  3662 ;; *************** function _UART_Init *****************
  3663 ;; Defined at:
  3664 ;;		line 434 in file "uart.c"
  3665 ;; Parameters:    Size  Location     Type
  3666 ;;  baud            4   17[BANK0 ] unsigned long 
  3667 ;; Auto vars:     Size  Location     Type
  3668 ;;		None
  3669 ;; Return value:  Size  Location     Type
  3670 ;;                  1    wreg      void 
  3671 ;; Registers used:
  3672 ;;		wreg, fsr1l, fsr1h, status,2, status,0, pclath, cstack
  3673 ;; Tracked objects:
  3674 ;;		On entry : 0/0
  3675 ;;		On exit  : 0/0
  3676 ;;		Unchanged: 0/0
  3677 ;; Data sizes:     COMMON   BANK0   BANK1   BANK2   BANK3   BANK4   BANK5   BANK6   BANK7   BANK8   BANK9  BANK10  BANK1
      +1  BANK12  BANK13  BANK14  BANK15  BANK16  BANK17  BANK18  BANK19  BANK20  BANK21  BANK22  BANK23  BANK24  BANK25
  3678 ;;      Params:         0       4       0       0       0       0       0       0       0       0       0       0       
      +0       0       0       0       0       0       0       0       0       0       0       0       0       0       0
  3679 ;;      Locals:         0       0       0       0       0       0       0       0       0       0       0       0       
      +0       0       0       0       0       0       0       0       0       0       0       0       0       0       0
  3680 ;;      Temps:          0       0       0       0       0       0       0       0       0       0       0       0       
      +0       0       0       0       0       0       0       0       0       0       0       0       0       0       0
  3681 ;;      Totals:         0       4       0       0       0       0       0       0       0       0       0       0       
      +0       0       0       0       0       0       0       0       0       0       0       0       0       0       0
  3682 ;;Total ram usage:        4 bytes
  3683 ;; Hardware stack levels used: 1
  3684 ;; Hardware stack levels required when called: 4
  3685 ;; This function calls:
  3686 ;;		_UART_Config_BAUD_Rate
  3687 ;;		_UART_Config_Clock
  3688 ;;		_UART_Config_GPIO
  3689 ;;		_UART_Config_Transmitter
  3690 ;;		_UART_Struct_Init
  3691 ;; This function is called by:
  3692 ;;		_main
  3693 ;; This function uses a non-reentrant model
  3694 ;;
  3695                           
  3696     01DC                     _UART_Init:	
  3697                           ;psect for function _UART_Init
  3698                           
  3699     01DC                     l1254:	
  3700                           ;incstack = 0
  3701                           ; Regs used in _UART_Init: [wreg+fsr1l+fsr1h+status,2+status,0+pclath+cstack]
  3702                           
  3703                           
  3704                           ;uart.c: 435: UART_Struct_Init();
  3705     01DC  3181  21F5  3181   	fcall	_UART_Struct_Init
  3706     01DF                     l1256:
  3707                           
  3708                           ;uart.c: 436: UART_Config_GPIO();
  3709     01DF  3182  2239  3181   	fcall	_UART_Config_GPIO
  3710     01E2                     l1258:
  3711                           
  3712                           ;uart.c: 437: UART_Config_Clock();
  3713     01E2  3182  223A  3181   	fcall	_UART_Config_Clock
  3714     01E5                     l1260:
  3715                           
  3716                           ;uart.c: 438: UART_Config_BAUD_Rate(baud);
  3717     01E5  0020               	movlb	0	; select bank0
  3718     01E6  0834               	movf	UART_Init@baud+3,w
  3719     01E7  00A8               	movwf	UART_Config_BAUD_Rate@baud_rate+3
  3720     01E8  0833               	movf	UART_Init@baud+2,w
  3721     01E9  00A7               	movwf	UART_Config_BAUD_Rate@baud_rate+2
  3722     01EA  0832               	movf	UART_Init@baud+1,w
  3723     01EB  00A6               	movwf	UART_Config_BAUD_Rate@baud_rate+1
  3724     01EC  0831               	movf	UART_Init@baud,w
  3725     01ED  00A5               	movwf	UART_Config_BAUD_Rate@baud_rate
  3726     01EE  3181  2124  3181   	fcall	_UART_Config_BAUD_Rate
  3727     01F1                     l1262:
  3728                           
  3729                           ;uart.c: 441: UART_Config_Transmitter();
  3730     01F1  3182  221A  3181   	fcall	_UART_Config_Transmitter
  3731     01F4                     l169:
  3732     01F4  0008               	return
  3733     01F5                     __end_of_UART_Init:
  3734                           
  3735                           	psect	text9
  3736     01F5                     __ptext9:	
  3737 ;; *************** function _UART_Struct_Init *****************
  3738 ;; Defined at:
  3739 ;;		line 162 in file "uart.c"
  3740 ;; Parameters:    Size  Location     Type
  3741 ;;		None
  3742 ;; Auto vars:     Size  Location     Type
  3743 ;;  i               1    2[COMMON] unsigned char 
  3744 ;; Return value:  Size  Location     Type
  3745 ;;                  1    wreg      void 
  3746 ;; Registers used:
  3747 ;;		wreg, fsr1l, fsr1h, status,2, status,0
  3748 ;; Tracked objects:
  3749 ;;		On entry : 0/0
  3750 ;;		On exit  : 0/0
  3751 ;;		Unchanged: 0/0
  3752 ;; Data sizes:     COMMON   BANK0   BANK1   BANK2   BANK3   BANK4   BANK5   BANK6   BANK7   BANK8   BANK9  BANK10  BANK1
      +1  BANK12  BANK13  BANK14  BANK15  BANK16  BANK17  BANK18  BANK19  BANK20  BANK21  BANK22  BANK23  BANK24  BANK25
  3753 ;;      Params:         0       0       0       0       0       0       0       0       0       0       0       0       
      +0       0       0       0       0       0       0       0       0       0       0       0       0       0       0
  3754 ;;      Locals:         1       0       0       0       0       0       0       0       0       0       0       0       
      +0       0       0       0       0       0       0       0       0       0       0       0       0       0       0
  3755 ;;      Temps:          1       0       0       0       0       0       0       0       0       0       0       0       
      +0       0       0       0       0       0       0       0       0       0       0       0       0       0       0
  3756 ;;      Totals:         2       0       0       0       0       0       0       0       0       0       0       0       
      +0       0       0       0       0       0       0       0       0       0       0       0       0       0       0
  3757 ;;Total ram usage:        2 bytes
  3758 ;; Hardware stack levels used: 1
  3759 ;; Hardware stack levels required when called: 2
  3760 ;; This function calls:
  3761 ;;		Nothing
  3762 ;; This function is called by:
  3763 ;;		_UART_Init
  3764 ;; This function uses a non-reentrant model
  3765 ;;
  3766                           
  3767     01F5                     _UART_Struct_Init:	
  3768                           ;psect for function _UART_Struct_Init
  3769                           
  3770     01F5                     l1228:	
  3771                           ;incstack = 0
  3772                           ; Regs used in _UART_Struct_Init: [wreg+fsr1l+fsr1h+status,2+status,0]
  3773                           
  3774                           
  3775                           ;uart.c: 163: UART.Error=0;
  3776     01F5  0020               	movlb	0	; select bank0
  3777     01F6  01B6               	clrf	_UART	;volatile
  3778                           
  3779                           ;uart.c: 164: for(uint8_t i=0;i<8;i++){
  3780     01F7  01F2               	clrf	UART_Struct_Init@i
  3781     01F8                     l1234:
  3782                           
  3783                           ;uart.c: 165: UART.Digits[i]=0;
  3784     01F8  0872               	movf	UART_Struct_Init@i,w
  3785     01F9  3E37               	addlw	(low ((_UART| 0+1)))& (0+255)
  3786     01FA  0086               	movwf	6
  3787     01FB  0187               	clrf	7
  3788     01FC  0181               	clrf	1
  3789     01FD                     l1236:
  3790     01FD  3001               	movlw	1
  3791     01FE  00F1               	movwf	??_UART_Struct_Init
  3792     01FF  0871               	movf	??_UART_Struct_Init,w
  3793     0200  07F2               	addwf	UART_Struct_Init@i,f
  3794     0201                     l1238:
  3795     0201  3008               	movlw	8
  3796     0202  0272               	subwf	UART_Struct_Init@i,w
  3797     0203  1C03               	skipc
  3798     0204  2A06               	goto	u551
  3799     0205  2A07               	goto	u550
  3800     0206                     u551:
  3801     0206  29F8               	goto	l1234
  3802     0207                     u550:
  3803     0207                     l1240:
  3804                           
  3805                           ;uart.c: 166: };uart.c: 167: UART.InputNumberDigits=0;
  3806     0207  0020               	movlb	0	; select bank0
  3807     0208  01BF               	clrf	_UART+9	;volatile
  3808     0209                     l102:
  3809     0209  0008               	return
  3810     020A                     __end_of_UART_Struct_Init:
  3811                           
  3812                           	psect	text10
  3813     021A                     __ptext10:	
  3814 ;; *************** function _UART_Config_Transmitter *****************
  3815 ;; Defined at:
  3816 ;;		line 106 in file "uart.c"
  3817 ;; Parameters:    Size  Location     Type
  3818 ;;		None
  3819 ;; Auto vars:     Size  Location     Type
  3820 ;;		None
  3821 ;; Return value:  Size  Location     Type
  3822 ;;                  1    wreg      void 
  3823 ;; Registers used:
  3824 ;;		wreg, status,2, status,0
  3825 ;; Tracked objects:
  3826 ;;		On entry : 0/0
  3827 ;;		On exit  : 0/0
  3828 ;;		Unchanged: 0/0
  3829 ;; Data sizes:     COMMON   BANK0   BANK1   BANK2   BANK3   BANK4   BANK5   BANK6   BANK7   BANK8   BANK9  BANK10  BANK1
      +1  BANK12  BANK13  BANK14  BANK15  BANK16  BANK17  BANK18  BANK19  BANK20  BANK21  BANK22  BANK23  BANK24  BANK25
  3830 ;;      Params:         0       0       0       0       0       0       0       0       0       0       0       0       
      +0       0       0       0       0       0       0       0       0       0       0       0       0       0       0
  3831 ;;      Locals:         0       0       0       0       0       0       0       0       0       0       0       0       
      +0       0       0       0       0       0       0       0       0       0       0       0       0       0       0
  3832 ;;      Temps:          1       0       0       0       0       0       0       0       0       0       0       0       
      +0       0       0       0       0       0       0       0       0       0       0       0       0       0       0
  3833 ;;      Totals:         1       0       0       0       0       0       0       0       0       0       0       0       
      +0       0       0       0       0       0       0       0       0       0       0       0       0       0       0
  3834 ;;Total ram usage:        1 bytes
  3835 ;; Hardware stack levels used: 1
  3836 ;; Hardware stack levels required when called: 2
  3837 ;; This function calls:
  3838 ;;		Nothing
  3839 ;; This function is called by:
  3840 ;;		_UART_Init
  3841 ;; This function uses a non-reentrant model
  3842 ;;
  3843                           
  3844     021A                     _UART_Config_Transmitter:	
  3845                           ;psect for function _UART_Config_Transmitter
  3846                           
  3847     021A                     l1218:	
  3848                           ;incstack = 0
  3849                           ; Regs used in _UART_Config_Transmitter: [wreg+status,2+status,0]
  3850                           
  3851                           
  3852                           ;uart.c: 107: TRISB |= (1<<6);
  3853     021A  0020               	movlb	0	; select bank0
  3854     021B  1712               	bsf	18,6	;volatile
  3855     021C                     l1220:
  3856                           
  3857                           ;uart.c: 108: ANSELB &= (uint8_t)(~(1<<6));
  3858     021C  30BF               	movlw	191
  3859     021D  00F1               	movwf	??_UART_Config_Transmitter
  3860     021E  0871               	movf	??_UART_Config_Transmitter,w
  3861     021F  003E               	movlb	30	; select bank30
  3862     0220  05C3               	andwf	67,f	;volatile
  3863     0221                     l1222:
  3864                           
  3865                           ;uart.c: 109: RB6PPS = 0x10;
  3866     0221  3010               	movlw	16
  3867     0222  009E               	movwf	30	;volatile
  3868     0223                     l1224:
  3869                           
  3870                           ;uart.c: 110: TX1STA |= (1<<5);
  3871     0223  0022               	movlb	2	; select bank2
  3872     0224  169E               	bsf	30,5	;volatile
  3873     0225                     l1226:
  3874                           
  3875                           ;uart.c: 111: RC1STA |= (1<<7);
  3876     0225  179D               	bsf	29,7	;volatile
  3877     0226                     l76:
  3878     0226  0008               	return
  3879     0227                     __end_of_UART_Config_Transmitter:
  3880                           
  3881                           	psect	text11
  3882     0239                     __ptext11:	
  3883 ;; *************** function _UART_Config_GPIO *****************
  3884 ;; Defined at:
  3885 ;;		line 89 in file "uart.c"
  3886 ;; Parameters:    Size  Location     Type
  3887 ;;		None
  3888 ;; Auto vars:     Size  Location     Type
  3889 ;;		None
  3890 ;; Return value:  Size  Location     Type
  3891 ;;                  1    wreg      void 
  3892 ;; Registers used:
  3893 ;;		None
  3894 ;; Tracked objects:
  3895 ;;		On entry : 0/0
  3896 ;;		On exit  : 0/0
  3897 ;;		Unchanged: 0/0
  3898 ;; Data sizes:     COMMON   BANK0   BANK1   BANK2   BANK3   BANK4   BANK5   BANK6   BANK7   BANK8   BANK9  BANK10  BANK1
      +1  BANK12  BANK13  BANK14  BANK15  BANK16  BANK17  BANK18  BANK19  BANK20  BANK21  BANK22  BANK23  BANK24  BANK25
  3899 ;;      Params:         0       0       0       0       0       0       0       0       0       0       0       0       
      +0       0       0       0       0       0       0       0       0       0       0       0       0       0       0
  3900 ;;      Locals:         0       0       0       0       0       0       0       0       0       0       0       0       
      +0       0       0       0       0       0       0       0       0       0       0       0       0       0       0
  3901 ;;      Temps:          0       0       0       0       0       0       0       0       0       0       0       0       
      +0       0       0       0       0       0       0       0       0       0       0       0       0       0       0
  3902 ;;      Totals:         0       0       0       0       0       0       0       0       0       0       0       0       
      +0       0       0       0       0       0       0       0       0       0       0       0       0       0       0
  3903 ;;Total ram usage:        0 bytes
  3904 ;; Hardware stack levels used: 1
  3905 ;; Hardware stack levels required when called: 2
  3906 ;; This function calls:
  3907 ;;		Nothing
  3908 ;; This function is called by:
  3909 ;;		_UART_Init
  3910 ;; This function uses a non-reentrant model
  3911 ;;
  3912                           
  3913     0239                     _UART_Config_GPIO:	
  3914                           ;psect for function _UART_Config_GPIO
  3915                           
  3916     0239                     l67:	
  3917                           ;incstack = 0
  3918                           ; Regs used in _UART_Config_GPIO: []
  3919                           
  3920     0239  0008               	return
  3921     023A                     __end_of_UART_Config_GPIO:
  3922                           
  3923                           	psect	text12
  3924     023A                     __ptext12:	
  3925 ;; *************** function _UART_Config_Clock *****************
  3926 ;; Defined at:
  3927 ;;		line 93 in file "uart.c"
  3928 ;; Parameters:    Size  Location     Type
  3929 ;;		None
  3930 ;; Auto vars:     Size  Location     Type
  3931 ;;		None
  3932 ;; Return value:  Size  Location     Type
  3933 ;;                  1    wreg      void 
  3934 ;; Registers used:
  3935 ;;		None
  3936 ;; Tracked objects:
  3937 ;;		On entry : 0/0
  3938 ;;		On exit  : 0/0
  3939 ;;		Unchanged: 0/0
  3940 ;; Data sizes:     COMMON   BANK0   BANK1   BANK2   BANK3   BANK4   BANK5   BANK6   BANK7   BANK8   BANK9  BANK10  BANK1
      +1  BANK12  BANK13  BANK14  BANK15  BANK16  BANK17  BANK18  BANK19  BANK20  BANK21  BANK22  BANK23  BANK24  BANK25
  3941 ;;      Params:         0       0       0       0       0       0       0       0       0       0       0       0       
      +0       0       0       0       0       0       0       0       0       0       0       0       0       0       0
  3942 ;;      Locals:         0       0       0       0       0       0       0       0       0       0       0       0       
      +0       0       0       0       0       0       0       0       0       0       0       0       0       0       0
  3943 ;;      Temps:          0       0       0       0       0       0       0       0       0       0       0       0       
      +0       0       0       0       0       0       0       0       0       0       0       0       0       0       0
  3944 ;;      Totals:         0       0       0       0       0       0       0       0       0       0       0       0       
      +0       0       0       0       0       0       0       0       0       0       0       0       0       0       0
  3945 ;;Total ram usage:        0 bytes
  3946 ;; Hardware stack levels used: 1
  3947 ;; Hardware stack levels required when called: 2
  3948 ;; This function calls:
  3949 ;;		Nothing
  3950 ;; This function is called by:
  3951 ;;		_UART_Init
  3952 ;; This function uses a non-reentrant model
  3953 ;;
  3954                           
  3955     023A                     _UART_Config_Clock:	
  3956                           ;psect for function _UART_Config_Clock
  3957                           
  3958     023A                     l70:	
  3959                           ;incstack = 0
  3960                           ; Regs used in _UART_Config_Clock: []
  3961                           
  3962     023A  0008               	return
  3963     023B                     __end_of_UART_Config_Clock:
  3964                           
  3965                           	psect	text13
  3966     0124                     __ptext13:	
  3967 ;; *************** function _UART_Config_BAUD_Rate *****************
  3968 ;; Defined at:
  3969 ;;		line 97 in file "uart.c"
  3970 ;; Parameters:    Size  Location     Type
  3971 ;;  baud_rate       4    5[BANK0 ] unsigned long 
  3972 ;; Auto vars:     Size  Location     Type
  3973 ;;  BRG_VAL         4   13[BANK0 ] unsigned long 
  3974 ;; Return value:  Size  Location     Type
  3975 ;;                  1    wreg      void 
  3976 ;; Registers used:
  3977 ;;		wreg, status,2, status,0, pclath, cstack
  3978 ;; Tracked objects:
  3979 ;;		On entry : 0/0
  3980 ;;		On exit  : 0/0
  3981 ;;		Unchanged: 0/0
  3982 ;; Data sizes:     COMMON   BANK0   BANK1   BANK2   BANK3   BANK4   BANK5   BANK6   BANK7   BANK8   BANK9  BANK10  BANK1
      +1  BANK12  BANK13  BANK14  BANK15  BANK16  BANK17  BANK18  BANK19  BANK20  BANK21  BANK22  BANK23  BANK24  BANK25
  3983 ;;      Params:         0       4       0       0       0       0       0       0       0       0       0       0       
      +0       0       0       0       0       0       0       0       0       0       0       0       0       0       0
  3984 ;;      Locals:         0       4       0       0       0       0       0       0       0       0       0       0       
      +0       0       0       0       0       0       0       0       0       0       0       0       0       0       0
  3985 ;;      Temps:          0       4       0       0       0       0       0       0       0       0       0       0       
      +0       0       0       0       0       0       0       0       0       0       0       0       0       0       0
  3986 ;;      Totals:         0      12       0       0       0       0       0       0       0       0       0       0       
      +0       0       0       0       0       0       0       0       0       0       0       0       0       0       0
  3987 ;;Total ram usage:       12 bytes
  3988 ;; Hardware stack levels used: 1
  3989 ;; Hardware stack levels required when called: 3
  3990 ;; This function calls:
  3991 ;;		___lldiv
  3992 ;; This function is called by:
  3993 ;;		_UART_Init
  3994 ;; This function uses a non-reentrant model
  3995 ;;
  3996                           
  3997     0124                     _UART_Config_BAUD_Rate:	
  3998                           ;psect for function _UART_Config_BAUD_Rate
  3999                           
  4000     0124                     l1208:	
  4001                           ;incstack = 0
  4002                           ; Regs used in _UART_Config_BAUD_Rate: [wreg+status,2+status,0+pclath+cstack]
  4003                           
  4004                           
  4005                           ;uart.c: 98: uint32_t BRG_VAL =32000000UL;
  4006     0124  3001               	movlw	1
  4007     0125  0020               	movlb	0	; select bank0
  4008     0126  00B0               	movwf	UART_Config_BAUD_Rate@BRG_VAL+3
  4009     0127  30E8               	movlw	232
  4010     0128  00AF               	movwf	UART_Config_BAUD_Rate@BRG_VAL+2
  4011     0129  3048               	movlw	72
  4012     012A  00AE               	movwf	UART_Config_BAUD_Rate@BRG_VAL+1
  4013     012B  3000               	movlw	0
  4014     012C  00AD               	movwf	UART_Config_BAUD_Rate@BRG_VAL
  4015     012D                     l1210:
  4016                           
  4017                           ;uart.c: 99: BRG_VAL =((BRG_VAL/4)/baud_rate)-1;
  4018     012D  0828               	movf	UART_Config_BAUD_Rate@baud_rate+3,w
  4019     012E  00F4               	movwf	___lldiv@divisor+3
  4020     012F  0827               	movf	UART_Config_BAUD_Rate@baud_rate+2,w
  4021     0130  00F3               	movwf	___lldiv@divisor+2
  4022     0131  0826               	movf	UART_Config_BAUD_Rate@baud_rate+1,w
  4023     0132  00F2               	movwf	___lldiv@divisor+1
  4024     0133  0825               	movf	UART_Config_BAUD_Rate@baud_rate,w
  4025     0134  00F1               	movwf	___lldiv@divisor
  4026     0135  082D               	movf	UART_Config_BAUD_Rate@BRG_VAL,w
  4027     0136  00A9               	movwf	??_UART_Config_BAUD_Rate
  4028     0137  082E               	movf	UART_Config_BAUD_Rate@BRG_VAL+1,w
  4029     0138  00AA               	movwf	??_UART_Config_BAUD_Rate+1
  4030     0139  082F               	movf	UART_Config_BAUD_Rate@BRG_VAL+2,w
  4031     013A  00AB               	movwf	??_UART_Config_BAUD_Rate+2
  4032     013B  0830               	movf	UART_Config_BAUD_Rate@BRG_VAL+3,w
  4033     013C  00AC               	movwf	??_UART_Config_BAUD_Rate+3
  4034     013D  3002               	movlw	2
  4035     013E                     u545:
  4036     013E  36AC               	lsrf	??_UART_Config_BAUD_Rate+3,f
  4037     013F  0CAB               	rrf	??_UART_Config_BAUD_Rate+2,f
  4038     0140  0CAA               	rrf	??_UART_Config_BAUD_Rate+1,f
  4039     0141  0CA9               	rrf	??_UART_Config_BAUD_Rate,f
  4040     0142                     u540:
  4041     0142  0B89               	decfsz	9,f
  4042     0143  293E               	goto	u545
  4043     0144  082C               	movf	??_UART_Config_BAUD_Rate+3,w
  4044     0145  00F8               	movwf	___lldiv@dividend+3
  4045     0146  082B               	movf	??_UART_Config_BAUD_Rate+2,w
  4046     0147  00F7               	movwf	___lldiv@dividend+2
  4047     0148  082A               	movf	??_UART_Config_BAUD_Rate+1,w
  4048     0149  00F6               	movwf	___lldiv@dividend+1
  4049     014A  0829               	movf	??_UART_Config_BAUD_Rate,w
  4050     014B  00F5               	movwf	___lldiv@dividend
  4051     014C  3180  202C  3181   	fcall	___lldiv
  4052     014F  30FF               	movlw	255
  4053     0150  0771               	addwf	?___lldiv,w
  4054     0151  0020               	movlb	0	; select bank0
  4055     0152  00AD               	movwf	UART_Config_BAUD_Rate@BRG_VAL
  4056     0153  30FF               	movlw	255
  4057     0154  3D72               	addwfc	?___lldiv+1,w
  4058     0155  00AE               	movwf	UART_Config_BAUD_Rate@BRG_VAL+1
  4059     0156  30FF               	movlw	255
  4060     0157  3D73               	addwfc	?___lldiv+2,w
  4061     0158  00AF               	movwf	UART_Config_BAUD_Rate@BRG_VAL+2
  4062     0159  30FF               	movlw	255
  4063     015A  3D74               	addwfc	?___lldiv+3,w
  4064     015B  00B0               	movwf	UART_Config_BAUD_Rate@BRG_VAL+3
  4065     015C                     l1212:
  4066                           
  4067                           ;uart.c: 100: SP1BRG =(uint16_t)BRG_VAL;
  4068     015C  082E               	movf	UART_Config_BAUD_Rate@BRG_VAL+1,w
  4069     015D  0022               	movlb	2	; select bank2
  4070     015E  009C               	movwf	28	;volatile
  4071     015F  0020               	movlb	0	; select bank0
  4072     0160  082D               	movf	UART_Config_BAUD_Rate@BRG_VAL,w
  4073     0161  0022               	movlb	2	; select bank2
  4074     0162  009B               	movwf	27	;volatile
  4075     0163                     l1214:
  4076                           
  4077                           ;uart.c: 101: BAUD1CON |= (1<<3);
  4078     0163  159F               	bsf	31,3	;volatile
  4079     0164                     l1216:
  4080                           
  4081                           ;uart.c: 102: TX1STA |= (1<<2);
  4082     0164  151E               	bsf	30,2	;volatile
  4083     0165                     l73:
  4084     0165  0008               	return
  4085     0166                     __end_of_UART_Config_BAUD_Rate:
  4086                           
  4087                           	psect	text14
  4088     002C                     __ptext14:	
  4089 ;; *************** function ___lldiv *****************
  4090 ;; Defined at:
  4091 ;;		line 5 in file "C:\Program Files\Microchip\xc8\v2.40\pic\sources\c90\common\__lldiv.c"
  4092 ;; Parameters:    Size  Location     Type
  4093 ;;  divisor         4    1[COMMON] unsigned long 
  4094 ;;  dividend        4    5[COMMON] unsigned long 
  4095 ;; Auto vars:     Size  Location     Type
  4096 ;;  quotient        4    0[BANK0 ] unsigned long 
  4097 ;;  counter         1    4[BANK0 ] unsigned char 
  4098 ;; Return value:  Size  Location     Type
  4099 ;;                  4    1[COMMON] unsigned long 
  4100 ;; Registers used:
  4101 ;;		wreg, status,2, status,0
  4102 ;; Tracked objects:
  4103 ;;		On entry : 0/0
  4104 ;;		On exit  : 0/0
  4105 ;;		Unchanged: 0/0
  4106 ;; Data sizes:     COMMON   BANK0   BANK1   BANK2   BANK3   BANK4   BANK5   BANK6   BANK7   BANK8   BANK9  BANK10  BANK1
      +1  BANK12  BANK13  BANK14  BANK15  BANK16  BANK17  BANK18  BANK19  BANK20  BANK21  BANK22  BANK23  BANK24  BANK25
  4107 ;;      Params:         8       0       0       0       0       0       0       0       0       0       0       0       
      +0       0       0       0       0       0       0       0       0       0       0       0       0       0       0
  4108 ;;      Locals:         0       5       0       0       0       0       0       0       0       0       0       0       
      +0       0       0       0       0       0       0       0       0       0       0       0       0       0       0
  4109 ;;      Temps:          1       0       0       0       0       0       0       0       0       0       0       0       
      +0       0       0       0       0       0       0       0       0       0       0       0       0       0       0
  4110 ;;      Totals:         9       5       0       0       0       0       0       0       0       0       0       0       
      +0       0       0       0       0       0       0       0       0       0       0       0       0       0       0
  4111 ;;Total ram usage:       14 bytes
  4112 ;; Hardware stack levels used: 1
  4113 ;; Hardware stack levels required when called: 2
  4114 ;; This function calls:
  4115 ;;		Nothing
  4116 ;; This function is called by:
  4117 ;;		_UART_Config_BAUD_Rate
  4118 ;;		_UART_Determine_Digit_Numbers
  4119 ;; This function uses a non-reentrant model
  4120 ;;
  4121                           
  4122     002C                     ___lldiv:	
  4123                           ;psect for function ___lldiv
  4124                           
  4125     002C                     l1126:	
  4126                           ;incstack = 0
  4127                           ; Regs used in ___lldiv: [wreg+status,2+status,0]
  4128                           
  4129     002C  3000               	movlw	0
  4130     002D  0020               	movlb	0	; select bank0
  4131     002E  00A3               	movwf	___lldiv@quotient+3
  4132     002F  3000               	movlw	0
  4133     0030  00A2               	movwf	___lldiv@quotient+2
  4134     0031  3000               	movlw	0
  4135     0032  00A1               	movwf	___lldiv@quotient+1
  4136     0033  3000               	movlw	0
  4137     0034  00A0               	movwf	___lldiv@quotient
  4138     0035  0874               	movf	___lldiv@divisor+3,w
  4139     0036  0473               	iorwf	___lldiv@divisor+2,w
  4140     0037  0472               	iorwf	___lldiv@divisor+1,w
  4141     0038  0471               	iorwf	___lldiv@divisor,w
  4142     0039  1903               	skipnz
  4143     003A  283C               	goto	u381
  4144     003B  283D               	goto	u380
  4145     003C                     u381:
  4146     003C  287E               	goto	l1146
  4147     003D                     u380:
  4148     003D                     l1128:
  4149     003D  01A4               	clrf	___lldiv@counter
  4150     003E  0AA4               	incf	___lldiv@counter,f
  4151     003F  284B               	goto	l1132
  4152     0040                     l1130:
  4153     0040  3001               	movlw	1
  4154     0041                     u395:
  4155     0041  35F1               	lslf	___lldiv@divisor,f
  4156     0042  0DF2               	rlf	___lldiv@divisor+1,f
  4157     0043  0DF3               	rlf	___lldiv@divisor+2,f
  4158     0044  0DF4               	rlf	___lldiv@divisor+3,f
  4159     0045  0B89               	decfsz	9,f
  4160     0046  2841               	goto	u395
  4161     0047  3001               	movlw	1
  4162     0048  00F9               	movwf	??___lldiv
  4163     0049  0879               	movf	??___lldiv,w
  4164     004A  07A4               	addwf	___lldiv@counter,f
  4165     004B                     l1132:
  4166     004B  1FF4               	btfss	___lldiv@divisor+3,7
  4167     004C  284E               	goto	u401
  4168     004D  284F               	goto	u400
  4169     004E                     u401:
  4170     004E  2840               	goto	l1130
  4171     004F                     u400:
  4172     004F                     l1134:
  4173     004F  3001               	movlw	1
  4174     0050                     u415:
  4175     0050  35A0               	lslf	___lldiv@quotient,f
  4176     0051  0DA1               	rlf	___lldiv@quotient+1,f
  4177     0052  0DA2               	rlf	___lldiv@quotient+2,f
  4178     0053  0DA3               	rlf	___lldiv@quotient+3,f
  4179     0054  0B89               	decfsz	9,f
  4180     0055  2850               	goto	u415
  4181     0056                     l1136:
  4182     0056  0874               	movf	___lldiv@divisor+3,w
  4183     0057  0278               	subwf	___lldiv@dividend+3,w
  4184     0058  1D03               	skipz
  4185     0059  2864               	goto	u425
  4186     005A  0873               	movf	___lldiv@divisor+2,w
  4187     005B  0277               	subwf	___lldiv@dividend+2,w
  4188     005C  1D03               	skipz
  4189     005D  2864               	goto	u425
  4190     005E  0872               	movf	___lldiv@divisor+1,w
  4191     005F  0276               	subwf	___lldiv@dividend+1,w
  4192     0060  1D03               	skipz
  4193     0061  2864               	goto	u425
  4194     0062  0871               	movf	___lldiv@divisor,w
  4195     0063  0275               	subwf	___lldiv@dividend,w
  4196     0064                     u425:
  4197     0064  1C03               	skipc
  4198     0065  2867               	goto	u421
  4199     0066  2868               	goto	u420
  4200     0067                     u421:
  4201     0067  2871               	goto	l1142
  4202     0068                     u420:
  4203     0068                     l1138:
  4204     0068  0871               	movf	___lldiv@divisor,w
  4205     0069  02F5               	subwf	___lldiv@dividend,f
  4206     006A  0872               	movf	___lldiv@divisor+1,w
  4207     006B  3BF6               	subwfb	___lldiv@dividend+1,f
  4208     006C  0873               	movf	___lldiv@divisor+2,w
  4209     006D  3BF7               	subwfb	___lldiv@dividend+2,f
  4210     006E  0874               	movf	___lldiv@divisor+3,w
  4211     006F  3BF8               	subwfb	___lldiv@dividend+3,f
  4212     0070                     l1140:
  4213     0070  1420               	bsf	___lldiv@quotient,0
  4214     0071                     l1142:
  4215     0071  3001               	movlw	1
  4216     0072                     u435:
  4217     0072  36F4               	lsrf	___lldiv@divisor+3,f
  4218     0073  0CF3               	rrf	___lldiv@divisor+2,f
  4219     0074  0CF2               	rrf	___lldiv@divisor+1,f
  4220     0075  0CF1               	rrf	___lldiv@divisor,f
  4221     0076  0B89               	decfsz	9,f
  4222     0077  2872               	goto	u435
  4223     0078                     l1144:
  4224     0078  3001               	movlw	1
  4225     0079  02A4               	subwf	___lldiv@counter,f
  4226     007A  1D03               	btfss	3,2
  4227     007B  287D               	goto	u441
  4228     007C  287E               	goto	u440
  4229     007D                     u441:
  4230     007D  284F               	goto	l1134
  4231     007E                     u440:
  4232     007E                     l1146:
  4233     007E  0823               	movf	___lldiv@quotient+3,w
  4234     007F  00F4               	movwf	?___lldiv+3
  4235     0080  0822               	movf	___lldiv@quotient+2,w
  4236     0081  00F3               	movwf	?___lldiv+2
  4237     0082  0821               	movf	___lldiv@quotient+1,w
  4238     0083  00F2               	movwf	?___lldiv+1
  4239     0084  0820               	movf	___lldiv@quotient,w
  4240     0085  00F1               	movwf	?___lldiv
  4241     0086                     l360:
  4242     0086  0008               	return
  4243     0087                     __end_of___lldiv:
  4244                           
  4245                           	psect	intentry
  4246     0004                     __pintentry:	
  4247 ;; *************** function _ISRs *****************
  4248 ;; Defined at:
  4249 ;;		line 46 in file "main.c"
  4250 ;; Parameters:    Size  Location     Type
  4251 ;;		None
  4252 ;; Auto vars:     Size  Location     Type
  4253 ;;		None
  4254 ;; Return value:  Size  Location     Type
  4255 ;;                  1    wreg      void 
  4256 ;; Registers used:
  4257 ;;		wreg, status,2, status,0, pclath, cstack
  4258 ;; Tracked objects:
  4259 ;;		On entry : 0/0
  4260 ;;		On exit  : 0/0
  4261 ;;		Unchanged: 0/0
  4262 ;; Data sizes:     COMMON   BANK0   BANK1   BANK2   BANK3   BANK4   BANK5   BANK6   BANK7   BANK8   BANK9  BANK10  BANK1
      +1  BANK12  BANK13  BANK14  BANK15  BANK16  BANK17  BANK18  BANK19  BANK20  BANK21  BANK22  BANK23  BANK24  BANK25
  4263 ;;      Params:         0       0       0       0       0       0       0       0       0       0       0       0       
      +0       0       0       0       0       0       0       0       0       0       0       0       0       0       0
  4264 ;;      Locals:         0       0       0       0       0       0       0       0       0       0       0       0       
      +0       0       0       0       0       0       0       0       0       0       0       0       0       0       0
  4265 ;;      Temps:          1       0       0       0       0       0       0       0       0       0       0       0       
      +0       0       0       0       0       0       0       0       0       0       0       0       0       0       0
  4266 ;;      Totals:         1       0       0       0       0       0       0       0       0       0       0       0       
      +0       0       0       0       0       0       0       0       0       0       0       0       0       0       0
  4267 ;;Total ram usage:        1 bytes
  4268 ;; Hardware stack levels used: 1
  4269 ;; Hardware stack levels required when called: 1
  4270 ;; This function calls:
  4271 ;;		_UART_ISR_Routine
  4272 ;; This function is called by:
  4273 ;;		Interrupt level 1
  4274 ;; This function uses a non-reentrant model
  4275 ;;
  4276                           
  4277     0004                     _ISRs:
  4278                           
  4279                           ;incstack = 0
  4280     0004  147E               	bsf	int$flags,0	;set compiler interrupt flag (level 1)
  4281                           
  4282                           ; Regs used in _ISRs: [wreg+status,2+status,0+pclath+cstack]
  4283     0005  3180               	pagesel	$
  4284     0006                     i1l1308:
  4285                           
  4286                           ;main.c: 47: UART_ISR_Routine();
  4287     0006  3182  223B  3180   	fcall	_UART_ISR_Routine
  4288     0009                     i1l1310:
  4289                           
  4290                           ;main.c: 48: if(PIR0 & (1<<5)){
  4291     0009  002E               	movlb	14	; select bank14
  4292     000A  1E8C               	btfss	12,5	;volatile
  4293     000B  280D               	goto	u58_21
  4294     000C  280E               	goto	u58_20
  4295     000D                     u58_21:
  4296     000D  2817               	goto	i1l38
  4297     000E                     u58_20:
  4298     000E                     i1l1312:
  4299                           
  4300                           ;main.c: 49: PIR0 &=~(1<<5);
  4301     000E  30DF               	movlw	223
  4302     000F  00F0               	movwf	??_ISRs
  4303     0010  0870               	movf	??_ISRs,w
  4304     0011  058C               	andwf	12,f	;volatile
  4305     0012                     i1l1314:
  4306                           
  4307                           ;main.c: 50: val++;
  4308     0012  3001               	movlw	1
  4309     0013  0020               	movlb	0	; select bank0
  4310     0014  07C0               	addwf	_val,f	;volatile
  4311     0015  3000               	movlw	0
  4312     0016  3DC1               	addwfc	_val+1,f	;volatile
  4313     0017                     i1l38:
  4314     0017  107E               	bcf	int$flags,0	;clear compiler interrupt flag (level 1)
  4315     0018  0009               	retfie
  4316     0019                     __end_of_ISRs:
  4317                           
  4318                           	psect	text16
  4319     023B                     __ptext16:	
  4320 ;; *************** function _UART_ISR_Routine *****************
  4321 ;; Defined at:
  4322 ;;		line 455 in file "uart.c"
  4323 ;; Parameters:    Size  Location     Type
  4324 ;;		None
  4325 ;; Auto vars:     Size  Location     Type
  4326 ;;		None
  4327 ;; Return value:  Size  Location     Type
  4328 ;;                  1    wreg      void 
  4329 ;; Registers used:
  4330 ;;		None
  4331 ;; Tracked objects:
  4332 ;;		On entry : 0/0
  4333 ;;		On exit  : 0/0
  4334 ;;		Unchanged: 0/0
  4335 ;; Data sizes:     COMMON   BANK0   BANK1   BANK2   BANK3   BANK4   BANK5   BANK6   BANK7   BANK8   BANK9  BANK10  BANK1
      +1  BANK12  BANK13  BANK14  BANK15  BANK16  BANK17  BANK18  BANK19  BANK20  BANK21  BANK22  BANK23  BANK24  BANK25
  4336 ;;      Params:         0       0       0       0       0       0       0       0       0       0       0       0       
      +0       0       0       0       0       0       0       0       0       0       0       0       0       0       0
  4337 ;;      Locals:         0       0       0       0       0       0       0       0       0       0       0       0       
      +0       0       0       0       0       0       0       0       0       0       0       0       0       0       0
  4338 ;;      Temps:          0       0       0       0       0       0       0       0       0       0       0       0       
      +0       0       0       0       0       0       0       0       0       0       0       0       0       0       0
  4339 ;;      Totals:         0       0       0       0       0       0       0       0       0       0       0       0       
      +0       0       0       0       0       0       0       0       0       0       0       0       0       0       0
  4340 ;;Total ram usage:        0 bytes
  4341 ;; Hardware stack levels used: 1
  4342 ;; This function calls:
  4343 ;;		Nothing
  4344 ;; This function is called by:
  4345 ;;		_ISRs
  4346 ;; This function uses a non-reentrant model
  4347 ;;
  4348                           
  4349     023B                     _UART_ISR_Routine:	
  4350                           ;psect for function _UART_ISR_Routine
  4351                           
  4352     023B                     i1l172:	
  4353                           ;incstack = 0
  4354                           ; Regs used in _UART_ISR_Routine: []
  4355                           
  4356     023B  0008               	return
  4357     023C                     __end_of_UART_ISR_Routine:
  4358     007E                     btemp	set	126	;btemp
  4359     007E                     int$flags	set	126
  4360     007E                     wtemp0	set	126
  4361                           
  4362                           	psect	config
  4363                           
  4364                           ;Config register CONFIG1 @ 0x8007
  4365                           ;	External Oscillator mode selection bits
  4366                           ;	FEXTOSC = OFF, Oscillator not enabled
  4367                           ;	Power-up default value for COSC bits
  4368                           ;	RSTOSC = HFINT32, HFINTOSC with OSCFRQ= 32 MHz and CDIV = 1:1
  4369                           ;	Clock Out Enable bit
  4370                           ;	CLKOUTEN = OFF, CLKOUT function is disabled; i/o or oscillator function on OSC2
  4371                           ;	Clock Switch Enable bit
  4372                           ;	CSWEN = ON, Writing to NOSC and NDIV is allowed
  4373                           ;	Fail-Safe Clock Monitor Enable bit
  4374                           ;	FCMEN = ON, FSCM timer enabled
  4375     8007                     	org	32775
  4376     8007  3F8C               	dw	16268
  4377                           
  4378                           ;Config register CONFIG2 @ 0x8008
  4379                           ;	Master Clear Enable bit
  4380                           ;	MCLRE = ON, MCLR pin is Master Clear function
  4381                           ;	Power-up Timer Enable bit
  4382                           ;	PWRTE = OFF, PWRT disabled
  4383                           ;	Low-Power BOR enable bit
  4384                           ;	LPBOREN = OFF, ULPBOR disabled
  4385                           ;	Brown-out reset enable bits
  4386                           ;	BOREN = OFF, Brown-out reset disabled
  4387                           ;	Brown-out Reset Voltage Selection
  4388                           ;	BORV = LO, Brown-out Reset Voltage (VBOR) set to 1.9V on LF, and 2.45V on F Devices
  4389                           ;	Zero-cross detect disable
  4390                           ;	ZCD = OFF, Zero-cross detect circuit is disabled at POR.
  4391                           ;	Peripheral Pin Select one-way control
  4392                           ;	PPS1WAY = ON, The PPSLOCK bit can be cleared and set only once in software
  4393                           ;	Stack Overflow/Underflow Reset Enable bit
  4394                           ;	STVREN = ON, Stack Overflow or Underflow will cause a reset
  4395                           ;	Background Debugger
  4396                           ;	DEBUG = 0x1, unprogrammed default
  4397     8008                     	org	32776
  4398     8008  3F3F               	dw	16191
  4399                           
  4400                           ;Config register CONFIG3 @ 0x8009
  4401                           ;	WDT Period Select bits
  4402                           ;	WDTCPS = WDTCPS_31, Divider ratio 1:65536; software control of WDTPS
  4403                           ;	WDT operating mode
  4404                           ;	WDTE = OFF, WDT Disabled, SWDTEN is ignored
  4405                           ;	WDT Window Select bits
  4406                           ;	WDTCWS = WDTCWS_7, window always open (100%); software control; keyed access not requi
      +                          red
  4407                           ;	WDT input clock selector
  4408                           ;	WDTCCS = SC, Software Control
  4409     8009                     	org	32777
  4410     8009  3F9F               	dw	16287
  4411                           
  4412                           ;Config register CONFIG4 @ 0x800A
  4413                           ;	UserNVM self-write protection bits
  4414                           ;	WRT = OFF, Write protection off
  4415                           ;	Scanner Enable bit
  4416                           ;	SCANE = available, Scanner module is available for use
  4417                           ;	Low Voltage Programming Enable bit
  4418                           ;	LVP = ON, Low Voltage programming enabled. MCLR/Vpp pin function is MCLR.
  4419     800A                     	org	32778
  4420     800A  3FFF               	dw	16383
  4421                           
  4422                           ;Config register CONFIG5 @ 0x800B
  4423                           ;	UserNVM Program memory code protection bit
  4424                           ;	CP = OFF, Program Memory code protection disabled
  4425                           ;	DataNVM code protection bit
  4426                           ;	CPD = OFF, Data EEPROM code protection disabled
  4427     800B                     	org	32779
  4428     800B  3FFF               	dw	16383

Data Sizes:
    Strings     0
    Constant    0
    Data        0
    BSS         12
    Persistent  32
    Stack       0

Auto Spaces:
    Space          Size  Autos    Used
    COMMON           14     13      13
    BANK0            80     22      34
    BANK1            80      0       0
    BANK2            80      0       0
    BANK3            80      0       0
    BANK4            80      0       0
    BANK5            80      0       0
    BANK6            80      0       0
    BANK7            80      0       0
    BANK8            80      0       0
    BANK9            80      0       0
    BANK10           80      0       0
    BANK11           80      0       0
    BANK12           80      0       0
    BANK13           80      0       0
    BANK14           80      0       0
    BANK15           80      0       0
    BANK16           80      0       0
    BANK17           80      0       0
    BANK18           80      0       0
    BANK19           80      0       0
    BANK20           80      0       0
    BANK21           80      0       0
    BANK22           80      0       0
    BANK23           80      0       0
    BANK24           80      0       0
    BANK25           32      0       0

Pointer List with Targets:

    None.

Critical Paths under _main in COMMON

    _UART_Transmit_Number->_UART_Determine_Digit_Numbers
    _UART_Transmit_Number_Digits->_UART_Transmit_Byte
    _UART_Determine_Digit_Numbers->___llmod
    _UART_Transmit_New_Line->_UART_Transmit_Byte
    _UART_Config_BAUD_Rate->___lldiv

Critical Paths under _ISRs in COMMON

    None.

Critical Paths under _main in BANK0

    _main->_UART_Init
    _UART_Transmit_Number_NL->_UART_Transmit_Number
    _UART_Transmit_Number->_UART_Determine_Digit_Numbers
    _UART_Determine_Digit_Numbers->___lldiv
    _UART_Init->_UART_Config_BAUD_Rate
    _UART_Config_BAUD_Rate->___lldiv

Critical Paths under _ISRs in BANK0

    None.

Critical Paths under _main in BANK1

    None.

Critical Paths under _ISRs in BANK1

    None.

Critical Paths under _main in BANK2

    None.

Critical Paths under _ISRs in BANK2

    None.

Critical Paths under _main in BANK3

    None.

Critical Paths under _ISRs in BANK3

    None.

Critical Paths under _main in BANK4

    None.

Critical Paths under _ISRs in BANK4

    None.

Critical Paths under _main in BANK5

    None.

Critical Paths under _ISRs in BANK5

    None.

Critical Paths under _main in BANK6

    None.

Critical Paths under _ISRs in BANK6

    None.

Critical Paths under _main in BANK7

    None.

Critical Paths under _ISRs in BANK7

    None.

Critical Paths under _main in BANK8

    None.

Critical Paths under _ISRs in BANK8

    None.

Critical Paths under _main in BANK9

    None.

Critical Paths under _ISRs in BANK9

    None.

Critical Paths under _main in BANK10

    None.

Critical Paths under _ISRs in BANK10

    None.

Critical Paths under _main in BANK11

    None.

Critical Paths under _ISRs in BANK11

    None.

Critical Paths under _main in BANK12

    None.

Critical Paths under _ISRs in BANK12

    None.

Critical Paths under _main in BANK13

    None.

Critical Paths under _ISRs in BANK13

    None.

Critical Paths under _main in BANK14

    None.

Critical Paths under _ISRs in BANK14

    None.

Critical Paths under _main in BANK15

    None.

Critical Paths under _ISRs in BANK15

    None.

Critical Paths under _main in BANK16

    None.

Critical Paths under _ISRs in BANK16

    None.

Critical Paths under _main in BANK17

    None.

Critical Paths under _ISRs in BANK17

    None.

Critical Paths under _main in BANK18

    None.

Critical Paths under _ISRs in BANK18

    None.

Critical Paths under _main in BANK19

    None.

Critical Paths under _ISRs in BANK19

    None.

Critical Paths under _main in BANK20

    None.

Critical Paths under _ISRs in BANK20

    None.

Critical Paths under _main in BANK21

    None.

Critical Paths under _ISRs in BANK21

    None.

Critical Paths under _main in BANK22

    None.

Critical Paths under _ISRs in BANK22

    None.

Critical Paths under _main in BANK23

    None.

Critical Paths under _ISRs in BANK23

    None.

Critical Paths under _main in BANK24

    None.

Critical Paths under _ISRs in BANK24

    None.

Critical Paths under _main in BANK25

    None.

Critical Paths under _ISRs in BANK25

    None.

Call Graph Tables:

 ---------------------------------------------------------------------------------
 (Depth) Function   	        Calls       Base Space   Used Autos Params    Refs
 ---------------------------------------------------------------------------------
 (0) _main                                                 1     1      0    2263
                                             21 BANK0      1     1      0
                          _UART_Init
            _UART_Transmit_Number_NL
 ---------------------------------------------------------------------------------
 (1) _UART_Transmit_Number_NL                              4     0      4    1487
                                             13 BANK0      4     0      4
             _UART_Transmit_New_Line
               _UART_Transmit_Number
 ---------------------------------------------------------------------------------
 (2) _UART_Transmit_Number                                 4     0      4    1367
                                              9 BANK0      4     0      4
       _UART_Determine_Digit_Numbers
                 _UART_Transmit_Byte
        _UART_Transmit_Number_Digits
 ---------------------------------------------------------------------------------
 (3) _UART_Transmit_Number_Digits                          3     3      0     138
                                              2 COMMON     3     3      0
                 _UART_Transmit_Byte
 ---------------------------------------------------------------------------------
 (3) _UART_Determine_Digit_Numbers                         6     2      4     988
                                             11 COMMON     2     2      0
                                              5 BANK0      4     0      4
                            ___lldiv
                            ___llmod
 ---------------------------------------------------------------------------------
 (4) ___llmod                                             10     2      8     311
                                              1 COMMON    10     2      8
 ---------------------------------------------------------------------------------
 (2) _UART_Transmit_New_Line                               0     0      0      22
                 _UART_Transmit_Byte
 ---------------------------------------------------------------------------------
 (4) _UART_Transmit_Byte                                   1     1      0      22
                                              1 COMMON     1     1      0
 ---------------------------------------------------------------------------------
 (1) _UART_Init                                            4     0      4     776
                                             17 BANK0      4     0      4
              _UART_Config_BAUD_Rate
                  _UART_Config_Clock
                   _UART_Config_GPIO
            _UART_Config_Transmitter
                   _UART_Struct_Init
 ---------------------------------------------------------------------------------
 (2) _UART_Struct_Init                                     2     2      0      68
                                              1 COMMON     2     2      0
 ---------------------------------------------------------------------------------
 (2) _UART_Config_Transmitter                              1     1      0       0
                                              1 COMMON     1     1      0
 ---------------------------------------------------------------------------------
 (2) _UART_Config_GPIO                                     0     0      0       0
 ---------------------------------------------------------------------------------
 (2) _UART_Config_Clock                                    0     0      0       0
 ---------------------------------------------------------------------------------
 (2) _UART_Config_BAUD_Rate                               12     8      4     610
                                              5 BANK0     12     8      4
                            ___lldiv
 ---------------------------------------------------------------------------------
 (4) ___lldiv                                             14     6      8     466
                                              1 COMMON     9     1      8
                                              0 BANK0      5     5      0
 ---------------------------------------------------------------------------------
 Estimated maximum stack depth 4
 ---------------------------------------------------------------------------------
 (Depth) Function   	        Calls       Base Space   Used Autos Params    Refs
 ---------------------------------------------------------------------------------
 (5) _ISRs                                                 1     1      0       0
                                              0 COMMON     1     1      0
                   _UART_ISR_Routine
 ---------------------------------------------------------------------------------
 (6) _UART_ISR_Routine                                     0     0      0       0
 ---------------------------------------------------------------------------------
 Estimated maximum stack depth 6
 ---------------------------------------------------------------------------------

 Call Graph Graphs:

 _main (ROOT)
   _UART_Init
     _UART_Config_BAUD_Rate
       ___lldiv
     _UART_Config_Clock
     _UART_Config_GPIO
     _UART_Config_Transmitter
     _UART_Struct_Init
   _UART_Transmit_Number_NL
     _UART_Transmit_New_Line
       _UART_Transmit_Byte
     _UART_Transmit_Number
       _UART_Determine_Digit_Numbers
         ___lldiv
         ___llmod
       _UART_Transmit_Byte
       _UART_Transmit_Number_Digits
         _UART_Transmit_Byte

 _ISRs (ROOT)
   _UART_ISR_Routine

 Address spaces:
Name               Size   Autos  Total    Cost      Usage
BIGRAM             7F0      0       0       0        0.0%
EEDATA             100      0       0       0        0.0%
NULL                 0      0       0       0        0.0%
CODE                 0      0       0       0        0.0%
BITCOMMON            E      0       0       1        0.0%
BITSFR0              0      0       0       1        0.0%
SFR0                 0      0       0       1        0.0%
COMMON               E      D       D       2       92.9%
BITSFR1              0      0       0       2        0.0%
SFR1                 0      0       0       2        0.0%
BITSFR2              0      0       0       3        0.0%
SFR2                 0      0       0       3        0.0%
STACK                0      0       0       3        0.0%
BITBANK0            50      0       0       4        0.0%
BITSFR3              0      0       0       4        0.0%
SFR3                 0      0       0       4        0.0%
BANK0               50     16      22       5       42.5%
BITSFR4              0      0       0       5        0.0%
SFR4                 0      0       0       5        0.0%
BITBANK1            50      0       0       6        0.0%
BITSFR5              0      0       0       6        0.0%
SFR5                 0      0       0       6        0.0%
BANK1               50      0       0       7        0.0%
BITSFR6              0      0       0       7        0.0%
SFR6                 0      0       0       7        0.0%
BITBANK2            50      0       0       8        0.0%
BITSFR7              0      0       0       8        0.0%
SFR7                 0      0       0       8        0.0%
BANK2               50      0       0       9        0.0%
BITSFR8              0      0       0       9        0.0%
SFR8                 0      0       0       9        0.0%
BITBANK3            50      0       0      10        0.0%
BITSFR9              0      0       0      10        0.0%
SFR9                 0      0       0      10        0.0%
BANK3               50      0       0      11        0.0%
BITSFR10             0      0       0      11        0.0%
SFR10                0      0       0      11        0.0%
BITBANK4            50      0       0      12        0.0%
BITSFR11             0      0       0      12        0.0%
SFR11                0      0       0      12        0.0%
BANK4               50      0       0      13        0.0%
BITSFR12             0      0       0      13        0.0%
SFR12                0      0       0      13        0.0%
BITSFR13             0      0       0      14        0.0%
SFR13                0      0       0      14        0.0%
ABS                  0      0      2F      14        0.0%
BITBANK5            50      0       0      15        0.0%
BITSFR14             0      0       0      15        0.0%
SFR14                0      0       0      15        0.0%
BANK5               50      0       0      16        0.0%
BITSFR15             0      0       0      16        0.0%
SFR15                0      0       0      16        0.0%
BITBANK6            50      0       0      17        0.0%
BITSFR16             0      0       0      17        0.0%
SFR16                0      0       0      17        0.0%
BANK6               50      0       0      18        0.0%
BITSFR17             0      0       0      18        0.0%
SFR17                0      0       0      18        0.0%
BITBANK7            50      0       0      19        0.0%
BITSFR18             0      0       0      19        0.0%
SFR18                0      0       0      19        0.0%
BANK7               50      0       0      20        0.0%
BITSFR19             0      0       0      20        0.0%
SFR19                0      0       0      20        0.0%
BITBANK8            50      0       0      21        0.0%
BITSFR20             0      0       0      21        0.0%
SFR20                0      0       0      21        0.0%
BANK8               50      0       0      22        0.0%
BITSFR21             0      0       0      22        0.0%
SFR21                0      0       0      22        0.0%
BITBANK9            50      0       0      23        0.0%
BITSFR22             0      0       0      23        0.0%
SFR22                0      0       0      23        0.0%
BANK9               50      0       0      24        0.0%
BITSFR23             0      0       0      24        0.0%
SFR23                0      0       0      24        0.0%
BITBANK10           50      0       0      25        0.0%
BITSFR24             0      0       0      25        0.0%
SFR24                0      0       0      25        0.0%
BANK10              50      0       0      26        0.0%
BITSFR25             0      0       0      26        0.0%
SFR25                0      0       0      26        0.0%
BITBANK11           50      0       0      27        0.0%
BITSFR26             0      0       0      27        0.0%
SFR26                0      0       0      27        0.0%
BITSFR27             0      0       0      28        0.0%
SFR27                0      0       0      28        0.0%
DATA                 0      0      2F      28        0.0%
BANK11              50      0       0      29        0.0%
BITSFR28             0      0       0      29        0.0%
SFR28                0      0       0      29        0.0%
BITBANK12           50      0       0      30        0.0%
BITSFR29             0      0       0      30        0.0%
SFR29                0      0       0      30        0.0%
BANK12              50      0       0      31        0.0%
BITSFR30             0      0       0      31        0.0%
SFR30                0      0       0      31        0.0%
BITBANK13           50      0       0      32        0.0%
BITSFR31             0      0       0      32        0.0%
SFR31                0      0       0      32        0.0%
BANK13              50      0       0      33        0.0%
BITBANK14           50      0       0      34        0.0%
BANK14              50      0       0      35        0.0%
BITBANK15           50      0       0      36        0.0%
BANK15              50      0       0      37        0.0%
BITBANK16           50      0       0      38        0.0%
BANK16              50      0       0      39        0.0%
BITBANK17           50      0       0      40        0.0%
BANK17              50      0       0      41        0.0%
BITBANK18           50      0       0      42        0.0%
BANK18              50      0       0      43        0.0%
BITBANK19           50      0       0      44        0.0%
BANK19              50      0       0      45        0.0%
BITBANK20           50      0       0      46        0.0%
BANK20              50      0       0      47        0.0%
BITBANK21           50      0       0      48        0.0%
BANK21              50      0       0      49        0.0%
BITBANK22           50      0       0      50        0.0%
BANK22              50      0       0      51        0.0%
BITBANK23           50      0       0      52        0.0%
BANK23              50      0       0      53        0.0%
BITBANK24           50      0       0      54        0.0%
BANK24              50      0       0      55        0.0%
BITBANK25           20      0       0      56        0.0%
BANK25              20      0       0      57        0.0%


Microchip Technology PIC Macro Assembler V2.40 build 20220703182018 
Symbol Table                                                                                   Sun Mar 10 18:04:36 2024

__end_of_UART_Determine_Digit_Numbers 00DA          _UART_Determine_Digit_Numbers 0087  
             _UART_Config_Transmitter 021A                                    l70 023A  
                                  l73 0165                                    l90 0238  
                                  l67 0239                                    l76 0226  
                                  l87 0234                                   l102 0209  
                                 l128 022F                                   l160 0219  
                                 l153 01DB                                   l148 00D9  
                                 l157 01BC                                   l360 0086  
                                 l169 01F4                                   l546 0123  
                                 u400 004F                                   u401 004E  
                                 u420 0068                                   u500 011B  
                                 u421 0067                                   u501 011A  
                                 u510 0091                                   u415 0050  
                                 u511 0090                                   u440 007E  
                                 u520 00D7                                   u441 007D  
                                 u425 0064                                   u521 00D6  
                                 u370 0238                                   u450 00E2  
                                 u530 01C5                                   u435 0072  
                                 u371 0237                                   u451 00E1  
                                 u531 01C4                                   u380 003D  
                                 u540 0142                                   u381 003C  
                                 u550 0207                                   u470 00F4  
                                 u551 0206                                   u471 00F3  
                                 u480 0106                                   u560 019E  
                                 u545 013E                                   u481 0105  
                                 u465 00E6                                   u561 019D  
                                 u395 0041                                   u485 0102  
                                 u495 010F                                   _val 0040  
                                 wreg 0009                                  l1200 01D0  
                                l1130 0040                                  l1210 012D  
                                l1202 01D4                                  l1140 0070  
                                l1132 004B                                  l1212 015C  
                                l1220 021C                                  l1124 0231  
                                l1204 01D8                                  l1300 0188  
                                l1142 0071                                  l1134 004F  
                                l1126 002C                                  l1214 0163  
                                l1222 0221                                  l1150 00DA  
                                l1302 0192                                  l1144 0078  
                                l1136 0056                                  l1128 003D  
                                l1216 0164                                  l1208 0124  
                                l1224 0223                                  l1240 0207  
                                l1160 0106                                  l1152 00E2  
                                l1304 0193                                  l1138 0068  
                                l1146 007E                                  l1226 0225  
                                l1218 021A                                  l1234 01F8  
                                l1242 0227                                  l1162 010E  
                                l1154 00E5                                  l1170 0087  
                                l1250 01AE                                  l1306 0194  
                                l1236 01FD                                  l1228 01F5  
                                l1260 01E5                                  l1164 0115  
                                l1156 00F0                                  l1180 00AE  
                                l1172 0088                                  l1252 01B9  
                                l1244 0199                                  l1238 0201  
                                l1262 01F1                                  l1254 01DC  
                                l1158 00F4                                  l1166 011B  
                                l1182 00CB                                  l1174 0091  
                                l1190 01C0                                  l1246 019E  
                                l1256 01DF                                  l1176 0092  
                                l1184 00CF                                  l1248 01A2  
                                l1264 020A                                  l1280 0172  
                                l1258 01E2                                  l1186 00D7  
                                l1178 0095                                  l1194 01C6  
                                l1266 0216                                  l1290 0181  
                                l1282 0175                                  l1196 01C8  
                                l1188 01BD                                  l1292 0182  
                                l1284 0176                                  l1198 01CA  
                                l1294 0183                                  l1286 017A  
                                l1278 0166                                  l1296 0184  
                                l1288 017C                                  l1298 0186  
                                _PIE0 0716                                  _PIE3 0719  
                   ?_UART_Config_GPIO 0070                                  i1l38 0017  
                                _PIR0 070C                                  _UART 0036  
                                _ISRs 0004               ?_UART_Transmit_New_Line 0070  
                                _main 0166                    ??_UART_Config_GPIO 0071  
                                fsr1h 0007                                  indf1 0001  
                                fsr1l 0006                                  btemp 007E  
                                start 0019            __end_of_UART_Transmit_Byte 0239  
                               ?_ISRs 0070         ?_UART_Determine_Digit_Numbers 0025  
                               ?_main 0070                       __end_of___lldiv 0087  
                   _UART_Config_Clock 023A                       __end_of___llmod 0124  
                               i1l172 023B                                 _TRISB 0012  
                               u58_20 000E                                 u58_21 000D  
                               _RXPPS 0ECB                    ?_UART_Config_Clock 0070  
      __end_of_UART_Transmit_New_Line 0230                   ??_UART_Config_Clock 0071  
                               status 0003                                 wtemp0 007E  
            ?_UART_Transmit_Number_NL 002D                          __end_of_ISRs 0019  
           ??_UART_Config_Transmitter 0071                       __initialization 001B  
                        __end_of_main 0199              __end_of_UART_Struct_Init 020A  
                              ??_ISRs 0070             __end_of_UART_Config_Clock 023B  
                              ??_main 0035                      ___llmod@dividend 0075  
                              _ANSELB 0F43                                _T0CON0 001E  
                              _T0CON1 001F                                _RC1REG 0119  
                              _RC1STA 011D                                _RB6PPS 0F1E  
                              i1l1310 0009                                i1l1312 000E  
                              i1l1314 0012                                i1l1308 0006  
                              _INTCON 000B                                _FVRCON 090C  
                              _SP1BRG 011B                                _TX1REG 011A  
                              _TX1STA 011E                     __end_of_UART_Init 01F5  
                           ??___lldiv 0079                             ??___llmod 0079  
      ??_UART_Determine_Digit_Numbers 007B       __end_of_UART_Transmit_Number_NL 021A  
             __end_of__initialization 0028                      _UART_ISR_Routine 023B  
                      __pcstackCOMMON 0070                 _UART_Config_BAUD_Rate 0124  
        __end_of_UART_Transmit_Number 01BD                            __pbssBANK0 0036  
                          __pmaintext 0166                            __pintentry 0004  
                  _UART_Transmit_Byte 0230       UART_Determine_Digit_Numbers@num 0025  
                             _VREGCON 0812          ?_UART_Transmit_Number_Digits 0070  
                 ?_UART_Transmit_Byte 0070          UART_Config_BAUD_Rate@BRG_VAL 002D  
              ?_UART_Config_BAUD_Rate 0025                               ___lldiv 002C  
                             ___llmod 00DA                  ??_UART_Transmit_Byte 0071  
                   ?_UART_Struct_Init 0070                               __ptext1 020A  
                             __ptext2 0199                               __ptext3 01BD  
                             __ptext4 0087                               __ptext5 00DA  
                             __ptext6 0227                               __ptext7 0230  
                             __ptext8 01DC                               __ptext9 01F5  
                  ??_UART_Struct_Init 0071                  end_of_initialization 0028  
       ??_UART_Transmit_Number_Digits 0072                  _UART_Transmit_Number 0199  
        UART_Transmit_Number_Digits@i 0074                       ___lldiv@divisor 0071  
                     ___lldiv@counter 0024                             _UART_Init 01DC  
            __end_of_UART_ISR_Routine 023C                 ?_UART_Transmit_Number 0029  
            ?_UART_Config_Transmitter 0070                      _UART_Config_GPIO 0239  
      UART_Config_BAUD_Rate@baud_rate 0025                            ?_UART_Init 0031  
            ??_UART_Transmit_New_Line 0072                   start_initialization 001B  
          UART_Transmit_Number_NL@num 002D                       ___llmod@divisor 0071  
                     ___llmod@counter 007A               _UART_Transmit_Number_NL 020A  
                           ___latbits 0003                         __pcstackBANK0 0020  
     __end_of_UART_Config_Transmitter 0227                ??_UART_Transmit_Number 007D  
       UART_Determine_Digit_Numbers@i 007C               ??_UART_Config_BAUD_Rate 0029  
                       UART_Init@baud 0031                              ?___lldiv 0071  
                            ?___llmod 0071                           ??_UART_Init 007A  
     UART_Transmit_Number_Digits@temp 0073                              _BAUD1CON 011F  
           ??_UART_Transmit_Number_NL 007D                     ?_UART_ISR_Routine 0070  
            __end_of_UART_Config_GPIO 023A                    ??_UART_ISR_Routine 0070  
              _UART_Transmit_New_Line 0227               UART_Transmit_Number@num 0029  
                            __ptext10 021A                              __ptext11 0239  
                            __ptext12 023A                              __ptext13 0124  
                            __ptext14 002C                              __ptext16 023B  
 __end_of_UART_Transmit_Number_Digits 01DC           _UART_Transmit_Number_Digits 01BD  
                            int$flags 007E                      _UART_Struct_Init 01F5  
                            intlevel1 0000                      ___lldiv@dividend 0075  
               UART_Transmit_Byte@val 0071         __end_of_UART_Config_BAUD_Rate 0166  
                   UART_Struct_Init@i 0072                      ___lldiv@quotient 0020  
